
========================================================================

** ELF Header Information

    File Name: .\obj\Smpl_7seg_Keypad.axf

    Machine class: ELFCLASS32 (32-bit)
    Data encoding: ELFDATA2LSB (Little endian)
    Header version: EV_CURRENT (Current version)
    Operating System ABI: none
    ABI Version: 0
    File Type: ET_EXEC (Executable) (2)
    Machine: EM_ARM (ARM)

    Image Entry point: 0x000001b5
    Flags: EF_ARM_HASENTRY (0x05000002)

    ARM ELF revision: 5 (ABI version 2)

    Built with
    ARM C/C++ Compiler, 4.1 [Build 894]
    ARM Assembler, 4.1 [Build 894]
    ARM Linker, 4.1 [Build 894] 

    Header size: 52 bytes (0x34)
    Program header entry size: 32 bytes (0x20)
    Section header entry size: 40 bytes (0x28)

    Program header entries: 1
    Section header entries: 16

    Program header offset: 289152 (0x00046980)
    Section header offset: 289184 (0x000469a0)

    Section header string table index: 15

========================================================================

** Program header #0 (PT_LOAD) [PF_X + PF_W + PF_R + PF_ARM_ENTRY]
    Size : 11208 bytes (7812 bytes in file)
    Virtual address: 0x00000000 (Alignment 8)


========================================================================

** Section #1 'ER_RO' (SHT_PROGBITS) [SHF_ALLOC + SHF_EXECINSTR]
    Size   : 5768 bytes (alignment 4)
    Address: 0x00000000

    $d.realdata
    RESET
    __Vectors
        0x00000000:    20001540    @..     DCD    536876352
        0x00000004:    000001b5    ....    DCD    437
        0x00000008:    000001d5    ....    DCD    469
        0x0000000c:    000001d7    ....    DCD    471
        0x00000010:    00000000    ....    DCD    0
        0x00000014:    00000000    ....    DCD    0
        0x00000018:    00000000    ....    DCD    0
        0x0000001c:    00000000    ....    DCD    0
        0x00000020:    00000000    ....    DCD    0
        0x00000024:    00000000    ....    DCD    0
        0x00000028:    00000000    ....    DCD    0
        0x0000002c:    000001d9    ....    DCD    473
        0x00000030:    00000000    ....    DCD    0
        0x00000034:    00000000    ....    DCD    0
        0x00000038:    000001db    ....    DCD    475
        0x0000003c:    000001dd    ....    DCD    477
        0x00000040:    000001df    ....    DCD    479
        0x00000044:    000001df    ....    DCD    479
        0x00000048:    00000ad1    ....    DCD    2769
        0x0000004c:    00000af5    ....    DCD    2805
        0x00000050:    00000b19    ....    DCD    2841
        0x00000054:    00000b55    U...    DCD    2901
        0x00000058:    000001df    ....    DCD    479
        0x0000005c:    000001df    ....    DCD    479
        0x00000060:    000001df    ....    DCD    479
        0x00000064:    000001df    ....    DCD    479
        0x00000068:    000001df    ....    DCD    479
        0x0000006c:    000001df    ....    DCD    479
        0x00000070:    000001df    ....    DCD    479
        0x00000074:    000001df    ....    DCD    479
        0x00000078:    000001df    ....    DCD    479
        0x0000007c:    000001df    ....    DCD    479
        0x00000080:    000001df    ....    DCD    479
        0x00000084:    000001df    ....    DCD    479
        0x00000088:    000001df    ....    DCD    479
        0x0000008c:    000001df    ....    DCD    479
        0x00000090:    000001df    ....    DCD    479
        0x00000094:    000001df    ....    DCD    479
        0x00000098:    000001df    ....    DCD    479
        0x0000009c:    000001df    ....    DCD    479
        0x000000a0:    000001df    ....    DCD    479
        0x000000a4:    000001df    ....    DCD    479
        0x000000a8:    000001df    ....    DCD    479
        0x000000ac:    000001df    ....    DCD    479
        0x000000b0:    000001df    ....    DCD    479
        0x000000b4:    000001df    ....    DCD    479
        0x000000b8:    000001df    ....    DCD    479
        0x000000bc:    000001df    ....    DCD    479
    $t
    !!!main
    __main
        0x000000c0:    f000f802    ....    BL       __scatterload ; 0xc8
        0x000000c4:    f000f84a    ..J.    BL       __rt_entry ; 0x15c
    !!!scatter
    __scatterload
    __scatterload_rt2
    __scatterload_rt2_thumb_only
        0x000000c8:    a00c        ..      ADR      r0,{pc}+0x34 ; 0xfc
        0x000000ca:    c830        0.      LDM      r0!,{r4,r5}
        0x000000cc:    3808        .8      SUBS     r0,r0,#8
        0x000000ce:    1824        $.      ADDS     r4,r4,r0
        0x000000d0:    182d        -.      ADDS     r5,r5,r0
        0x000000d2:    46a2        .F      MOV      r10,r4
        0x000000d4:    1e67        g.      SUBS     r7,r4,#1
        0x000000d6:    46ab        .F      MOV      r11,r5
    __scatterload_null
        0x000000d8:    4654        TF      MOV      r4,r10
        0x000000da:    465d        ]F      MOV      r5,r11
        0x000000dc:    42ac        .B      CMP      r4,r5
        0x000000de:    d101        ..      BNE      0xe4 ; __scatterload_null + 12
        0x000000e0:    f000f83c    ..<.    BL       __rt_entry ; 0x15c
        0x000000e4:    467e        ~F      MOV      r6,pc
        0x000000e6:    3e0f        .>      SUBS     r6,r6,#0xf
        0x000000e8:    cc0f        ..      LDM      r4!,{r0-r3}
        0x000000ea:    46b6        .F      MOV      lr,r6
        0x000000ec:    2601        .&      MOVS     r6,#1
        0x000000ee:    4233        3B      TST      r3,r6
        0x000000f0:    d000        ..      BEQ      0xf4 ; __scatterload_null + 28
        0x000000f2:    1afb        ..      SUBS     r3,r7,r3
        0x000000f4:    46a2        .F      MOV      r10,r4
        0x000000f6:    46ab        .F      MOV      r11,r5
        0x000000f8:    4333        3C      ORRS     r3,r3,r6
        0x000000fa:    4718        .G      BX       r3
    $d
        0x000000fc:    0000156c    l...    DCD    5484
        0x00000100:    0000158c    ....    DCD    5516
    $t
    !!handler_copy
    __scatterload_copy
        0x00000104:    3a10        .:      SUBS     r2,r2,#0x10
        0x00000106:    d302        ..      BCC      0x10e ; __scatterload_copy + 10
        0x00000108:    c878        x.      LDM      r0!,{r3-r6}
        0x0000010a:    c178        x.      STM      r1!,{r3-r6}
        0x0000010c:    d8fa        ..      BHI      __scatterload_copy ; 0x104
        0x0000010e:    0752        R.      LSLS     r2,r2,#29
        0x00000110:    d301        ..      BCC      0x116 ; __scatterload_copy + 18
        0x00000112:    c830        0.      LDM      r0!,{r4,r5}
        0x00000114:    c130        0.      STM      r1!,{r4,r5}
        0x00000116:    d501        ..      BPL      0x11c ; __scatterload_copy + 24
        0x00000118:    6804        .h      LDR      r4,[r0,#0]
        0x0000011a:    600c        .`      STR      r4,[r1,#0]
        0x0000011c:    4770        pG      BX       lr
        0x0000011e:    0000        ..      MOVS     r0,r0
    !!handler_zi
    __scatterload_zeroinit
        0x00000120:    2300        .#      MOVS     r3,#0
        0x00000122:    2400        .$      MOVS     r4,#0
        0x00000124:    2500        .%      MOVS     r5,#0
        0x00000126:    2600        .&      MOVS     r6,#0
        0x00000128:    3a10        .:      SUBS     r2,r2,#0x10
        0x0000012a:    d301        ..      BCC      0x130 ; __scatterload_zeroinit + 16
        0x0000012c:    c178        x.      STM      r1!,{r3-r6}
        0x0000012e:    d8fb        ..      BHI      0x128 ; __scatterload_zeroinit + 8
        0x00000130:    0752        R.      LSLS     r2,r2,#29
        0x00000132:    d300        ..      BCC      0x136 ; __scatterload_zeroinit + 22
        0x00000134:    c130        0.      STM      r1!,{r4,r5}
        0x00000136:    d500        ..      BPL      0x13a ; __scatterload_zeroinit + 26
        0x00000138:    600b        .`      STR      r3,[r1,#0]
        0x0000013a:    4770        pG      BX       lr
    .ARM.Collect$$_printf_percent$$00000000
    _printf_percent
        0x0000013c:    b510        ..      PUSH     {r4,lr}
    .ARM.Collect$$_printf_percent$$00000009
    _printf_d
        0x0000013e:    2964        d)      CMP      r1,#0x64
        0x00000140:    d102        ..      BNE      _printf_percent_end ; 0x148
        0x00000142:    f000f8b5    ....    BL       _printf_int_dec ; 0x2b0
        0x00000146:    bd10        ..      POP      {r4,pc}
    .ARM.Collect$$_printf_percent$$00000017
    _printf_percent_end
        0x00000148:    2000        .       MOVS     r0,#0
        0x0000014a:    bd10        ..      POP      {r4,pc}
    .ARM.Collect$$libinit$$00000000
    __rt_lib_init
        0x0000014c:    b51f        ..      PUSH     {r0-r4,lr}
        0x0000014e:    46c0        .F      MOV      r8,r8
        0x00000150:    46c0        .F      MOV      r8,r8
    .ARM.Collect$$libinit$$00000006
    .ARM.Collect$$libinit$$00000008
    .ARM.Collect$$libinit$$00000009
    __rt_lib_init_heap_1
    __rt_lib_init_rand_2
    __rt_lib_init_user_alloc_1
        0x00000152:    f000f8fa    ....    BL       _rand_init ; 0x34a
    .ARM.Collect$$libinit$$0000000A
    .ARM.Collect$$libinit$$0000000D
    .ARM.Collect$$libinit$$0000000F
    .ARM.Collect$$libinit$$00000011
    .ARM.Collect$$libinit$$00000013
    .ARM.Collect$$libinit$$00000015
    .ARM.Collect$$libinit$$00000017
    .ARM.Collect$$libinit$$00000019
    .ARM.Collect$$libinit$$0000001B
    .ARM.Collect$$libinit$$0000001D
    .ARM.Collect$$libinit$$0000001F
    .ARM.Collect$$libinit$$00000021
    .ARM.Collect$$libinit$$00000028
    .ARM.Collect$$libinit$$0000002A
    .ARM.Collect$$libinit$$0000002C
    .ARM.Collect$$libinit$$0000002E
    .ARM.Collect$$libinit$$0000002F
    __rt_lib_init_alloca_1
    __rt_lib_init_argv_1
    __rt_lib_init_atexit_1
    __rt_lib_init_clock_1
    __rt_lib_init_cpp_1
    __rt_lib_init_exceptions_1
    __rt_lib_init_fp_trap_1
    __rt_lib_init_getenv_1
    __rt_lib_init_lc_collate_1
    __rt_lib_init_lc_ctype_1
    __rt_lib_init_lc_monetary_1
    __rt_lib_init_lc_numeric_1
    __rt_lib_init_lc_time_1
    __rt_lib_init_rand_1
    __rt_lib_init_return
    __rt_lib_init_signal_1
    __rt_lib_init_stdio_1
        0x00000156:    bd1f        ..      POP      {r0-r4,pc}
    .ARM.Collect$$libshutdown$$00000000
    __rt_lib_shutdown
        0x00000158:    b510        ..      PUSH     {r4,lr}
    .ARM.Collect$$libshutdown$$00000003
    .ARM.Collect$$libshutdown$$00000006
    .ARM.Collect$$libshutdown$$00000009
    .ARM.Collect$$libshutdown$$0000000B
    .ARM.Collect$$libshutdown$$0000000E
    .ARM.Collect$$libshutdown$$0000000F
    __rt_lib_shutdown_fp_trap_1
    __rt_lib_shutdown_heap_1
    __rt_lib_shutdown_return
    __rt_lib_shutdown_signal_1
    __rt_lib_shutdown_stdio_1
    __rt_lib_shutdown_user_alloc_1
        0x0000015a:    bd10        ..      POP      {r4,pc}
    .ARM.Collect$$rtentry$$00000000
    .ARM.Collect$$rtentry$$00000002
    .ARM.Collect$$rtentry$$00000004
    __rt_entry
    __rt_entry_presh_1
    __rt_entry_sh
        0x0000015c:    f000fc0b    ....    BL       __user_setup_stackheap ; 0x976
        0x00000160:    4611        .F      MOV      r1,r2
    .ARM.Collect$$rtentry$$00000009
    .ARM.Collect$$rtentry$$0000000A
    __rt_entry_li
    __rt_entry_postsh_1
        0x00000162:    f7fffff3    ....    BL       __rt_lib_init ; 0x14c
    .ARM.Collect$$rtentry$$0000000C
    .ARM.Collect$$rtentry$$0000000D
    __rt_entry_main
    __rt_entry_postli_1
        0x00000166:    f001f8cd    ....    BL       main ; 0x1304
        0x0000016a:    f000fc23    ..#.    BL       exit ; 0x9b4
    .ARM.Collect$$rtexit$$00000000
    __rt_exit
        0x0000016e:    b403        ..      PUSH     {r0,r1}
    .ARM.Collect$$rtexit$$00000002
    .ARM.Collect$$rtexit$$00000003
    __rt_exit_ls
    __rt_exit_prels_1
        0x00000170:    f7fffff2    ....    BL       __rt_lib_shutdown ; 0x158
    .ARM.Collect$$rtexit$$00000004
    __rt_exit_exit
        0x00000174:    bc03        ..      POP      {r0,r1}
        0x00000176:    f000fc27    ..'.    BL       _sys_exit ; 0x9c8
        0x0000017a:    0000        ..      MOVS     r0,r0
    .emb_text
    rand
        0x0000017c:    b430        0.      PUSH     {r4,r5}
        0x0000017e:    490c        .I      LDR      r1,[pc,#48] ; [0x1b0] = 0x200010d8
        0x00000180:    680c        .h      LDR      r4,[r1,#0]
        0x00000182:    684a        Jh      LDR      r2,[r1,#4]
        0x00000184:    6823        #h      LDR      r3,[r4,#0]
        0x00000186:    6810        .h      LDR      r0,[r2,#0]
        0x00000188:    18c0        ..      ADDS     r0,r0,r3
        0x0000018a:    6010        .`      STR      r0,[r2,#0]
        0x0000018c:    1d24        $.      ADDS     r4,r4,#4
        0x0000018e:    1d12        ..      ADDS     r2,r2,#4
        0x00000190:    428c        .B      CMP      r4,r1
        0x00000192:    d207        ..      BCS      0x1a4 ; rand + 40
        0x00000194:    428a        .B      CMP      r2,r1
        0x00000196:    d208        ..      BCS      0x1aa ; rand + 46
        0x00000198:    600c        .`      STR      r4,[r1,#0]
        0x0000019a:    604a        J`      STR      r2,[r1,#4]
        0x0000019c:    bc30        0.      POP      {r4,r5}
        0x0000019e:    0040        @.      LSLS     r0,r0,#1
        0x000001a0:    0840        @.      LSRS     r0,r0,#1
        0x000001a2:    4770        pG      BX       lr
        0x000001a4:    000c        ..      MOVS     r4,r1
        0x000001a6:    3cdc        .<      SUBS     r4,r4,#0xdc
        0x000001a8:    e7f6        ..      B        0x198 ; rand + 28
        0x000001aa:    000a        ..      MOVS     r2,r1
        0x000001ac:    3adc        .:      SUBS     r2,r2,#0xdc
        0x000001ae:    e7f3        ..      B        0x198 ; rand + 28
    $d
        0x000001b0:    200010d8    ...     DCD    536875224
    $t
    .text
    Reset_Handler
        0x000001b4:    480d        .H      LDR      r0,[pc,#52] ; [0x1ec] = 0x50000100
        0x000001b6:    490e        .I      LDR      r1,[pc,#56] ; [0x1f0] = 0x59
        0x000001b8:    6001        .`      STR      r1,[r0,#0]
        0x000001ba:    490e        .I      LDR      r1,[pc,#56] ; [0x1f4] = 0x16
        0x000001bc:    6001        .`      STR      r1,[r0,#0]
        0x000001be:    490e        .I      LDR      r1,[pc,#56] ; [0x1f8] = 0x88
        0x000001c0:    6001        .`      STR      r1,[r0,#0]
        0x000001c2:    4a0e        .J      LDR      r2,[pc,#56] ; [0x1fc] = 0x50000024
        0x000001c4:    490e        .I      LDR      r1,[pc,#56] ; [0x200] = 0x5aa5
        0x000001c6:    6011        .`      STR      r1,[r2,#0]
        0x000001c8:    2100        .!      MOVS     r1,#0
        0x000001ca:    6001        .`      STR      r1,[r0,#0]
        0x000001cc:    480d        .H      LDR      r0,[pc,#52] ; [0x204] = 0x1209
        0x000001ce:    4780        .G      BLX      r0
        0x000001d0:    480d        .H      LDR      r0,[pc,#52] ; [0x208] = 0xc1
        0x000001d2:    4700        .G      BX       r0
    NMI_Handler
        0x000001d4:    e7fe        ..      B        NMI_Handler ; 0x1d4
    HardFault_Handler
        0x000001d6:    e7fe        ..      B        HardFault_Handler ; 0x1d6
    SVC_Handler
        0x000001d8:    e7fe        ..      B        SVC_Handler ; 0x1d8
    PendSV_Handler
        0x000001da:    e7fe        ..      B        PendSV_Handler ; 0x1da
    SysTick_Handler
        0x000001dc:    e7fe        ..      B        SysTick_Handler ; 0x1dc
    Default_Handler
    ACMP_IRQHandler
    ADC_IRQHandler
    BOD_IRQHandler
    CAN0_IRQHandler
    I2C0_IRQHandler
    I2C1_IRQHandler
    I2S_IRQHandler
    PDMA_IRQHandler
    PS2_IRQHandler
    PWMA_IRQHandler
    PWMB_IRQHandler
    PWRWU_IRQHandler
    RTC_IRQHandler
    SPI0_IRQHandler
    SPI1_IRQHandler
    SPI2_IRQHandler
    SPI3_IRQHandler
    TMR0_IRQHandler
    TMR1_IRQHandler
    TMR2_IRQHandler
    TMR3_IRQHandler
    UART02_IRQHandler
    UART1_IRQHandler
    USBD_IRQHandler
    WDT_IRQHandler
        0x000001de:    e7fe        ..      B        Default_Handler ; 0x1de
    __user_initial_stackheap
        0x000001e0:    480a        .H      LDR      r0,[pc,#40] ; [0x20c] = 0x20001140
        0x000001e2:    490b        .I      LDR      r1,[pc,#44] ; [0x210] = 0x20001540
        0x000001e4:    4a09        .J      LDR      r2,[pc,#36] ; [0x20c] = 0x20001140
        0x000001e6:    4b0b        .K      LDR      r3,[pc,#44] ; [0x214] = 0x20001140
        0x000001e8:    4770        pG      BX       lr
    $d
        0x000001ea:    0000        ..      DCW    0
        0x000001ec:    50000100    ...P    DCD    1342177536
        0x000001f0:    00000059    Y...    DCD    89
        0x000001f4:    00000016    ....    DCD    22
        0x000001f8:    00000088    ....    DCD    136
        0x000001fc:    50000024    $..P    DCD    1342177316
        0x00000200:    00005aa5    .Z..    DCD    23205
        0x00000204:    00001209    ....    DCD    4617
        0x00000208:    000000c1    ....    DCD    193
        0x0000020c:    20001140    @..     DCD    536875328
        0x00000210:    20001540    @..     DCD    536876352
        0x00000214:    20001140    @..     DCD    536875328
    $t
    .text
    __2sprintf
        0x00000218:    b40f        ..      PUSH     {r0-r3}
        0x0000021a:    b51c        ..      PUSH     {r2-r4,lr}
        0x0000021c:    4b07        .K      LDR      r3,[pc,#28] ; [0x23c] = 0x721
        0x0000021e:    aa06        ..      ADD      r2,sp,#0x18
        0x00000220:    447b        {D      ADD      r3,r3,pc
        0x00000222:    4669        iF      MOV      r1,sp
        0x00000224:    9000        ..      STR      r0,[sp,#0]
        0x00000226:    9805        ..      LDR      r0,[sp,#0x14]
        0x00000228:    f000fb79    ..y.    BL       _printf_char_common ; 0x91e
        0x0000022c:    2000        .       MOVS     r0,#0
        0x0000022e:    4669        iF      MOV      r1,sp
        0x00000230:    f000fb88    ....    BL       _sputc ; 0x944
        0x00000234:    bc1c        ..      POP      {r2-r4}
        0x00000236:    bc08        ..      POP      {r3}
        0x00000238:    b004        ..      ADD      sp,sp,#0x10
        0x0000023a:    4718        .G      BX       r3
    $d
        0x0000023c:    00000721    !...    DCD    1825
    $t
    .text
    __printf
        0x00000240:    b5f8        ..      PUSH     {r3-r7,lr}
        0x00000242:    4604        .F      MOV      r4,r0
        0x00000244:    460e        .F      MOV      r6,r1
        0x00000246:    2000        .       MOVS     r0,#0
        0x00000248:    e02d        -.      B        0x2a6 ; __printf + 102
        0x0000024a:    68e1        .h      LDR      r1,[r4,#0xc]
        0x0000024c:    4620         F      MOV      r0,r4
        0x0000024e:    4788        .G      BLX      r1
        0x00000250:    2800        .(      CMP      r0,#0
        0x00000252:    d02a        *.      BEQ      0x2aa ; __printf + 106
        0x00000254:    2825        %(      CMP      r0,#0x25
        0x00000256:    d002        ..      BEQ      0x25e ; __printf + 30
        0x00000258:    6862        bh      LDR      r2,[r4,#4]
        0x0000025a:    68a1        .h      LDR      r1,[r4,#8]
        0x0000025c:    e020         .      B        0x2a0 ; __printf + 96
        0x0000025e:    68e1        .h      LDR      r1,[r4,#0xc]
        0x00000260:    4620         F      MOV      r0,r4
        0x00000262:    2700        .'      MOVS     r7,#0
        0x00000264:    4788        .G      BLX      r1
        0x00000266:    0005        ..      MOVS     r5,r0
        0x00000268:    d01f        ..      BEQ      0x2aa ; __printf + 106
        0x0000026a:    4628        (F      MOV      r0,r5
        0x0000026c:    3841        A8      SUBS     r0,r0,#0x41
        0x0000026e:    2819        .(      CMP      r0,#0x19
        0x00000270:    d802        ..      BHI      0x278 ; __printf + 56
        0x00000272:    2701        .'      MOVS     r7,#1
        0x00000274:    02ff        ..      LSLS     r7,r7,#11
        0x00000276:    3520         5      ADDS     r5,r5,#0x20
        0x00000278:    4632        2F      MOV      r2,r6
        0x0000027a:    4620         F      MOV      r0,r4
        0x0000027c:    6027        '`      STR      r7,[r4,#0]
        0x0000027e:    4629        )F      MOV      r1,r5
        0x00000280:    f7ffff5c    ..\.    BL       _printf_percent ; 0x13c
        0x00000284:    2800        .(      CMP      r0,#0
        0x00000286:    d008        ..      BEQ      0x29a ; __printf + 90
        0x00000288:    2801        .(      CMP      r0,#1
        0x0000028a:    d004        ..      BEQ      0x296 ; __printf + 86
        0x0000028c:    1df6        ..      ADDS     r6,r6,#7
        0x0000028e:    08f6        ..      LSRS     r6,r6,#3
        0x00000290:    00f6        ..      LSLS     r6,r6,#3
        0x00000292:    3608        .6      ADDS     r6,r6,#8
        0x00000294:    e7d9        ..      B        0x24a ; __printf + 10
        0x00000296:    1d36        6.      ADDS     r6,r6,#4
        0x00000298:    e7d7        ..      B        0x24a ; __printf + 10
        0x0000029a:    6862        bh      LDR      r2,[r4,#4]
        0x0000029c:    4628        (F      MOV      r0,r5
        0x0000029e:    68a1        .h      LDR      r1,[r4,#8]
        0x000002a0:    4790        .G      BLX      r2
        0x000002a2:    6a20         j      LDR      r0,[r4,#0x20]
        0x000002a4:    1c40        @.      ADDS     r0,r0,#1
        0x000002a6:    6220         b      STR      r0,[r4,#0x20]
        0x000002a8:    e7cf        ..      B        0x24a ; __printf + 10
        0x000002aa:    6a20         j      LDR      r0,[r4,#0x20]
        0x000002ac:    bdf8        ..      POP      {r3-r7,pc}
        0x000002ae:    0000        ..      MOVS     r0,r0
    .text
    _printf_int_dec
        0x000002b0:    b5f7        ..      PUSH     {r0-r2,r4-r7,lr}
        0x000002b2:    2600        .&      MOVS     r6,#0
        0x000002b4:    2975        u)      CMP      r1,#0x75
        0x000002b6:    6810        .h      LDR      r0,[r2,#0]
        0x000002b8:    9900        ..      LDR      r1,[sp,#0]
        0x000002ba:    a514        ..      ADR      r5,{pc}+0x52 ; 0x30c
        0x000002bc:    d011        ..      BEQ      0x2e2 ; _printf_int_dec + 50
        0x000002be:    46c0        .F      MOV      r8,r8
        0x000002c0:    46c0        .F      MOV      r8,r8
        0x000002c2:    2800        .(      CMP      r0,#0
        0x000002c4:    da02        ..      BGE      0x2cc ; _printf_int_dec + 28
        0x000002c6:    4240        @B      RSBS     r0,r0,#0
        0x000002c8:    a511        ..      ADR      r5,{pc}+0x48 ; 0x310
        0x000002ca:    e008        ..      B        0x2de ; _printf_int_dec + 46
        0x000002cc:    9900        ..      LDR      r1,[sp,#0]
        0x000002ce:    6809        .h      LDR      r1,[r1,#0]
        0x000002d0:    078a        ..      LSLS     r2,r1,#30
        0x000002d2:    d501        ..      BPL      0x2d8 ; _printf_int_dec + 40
        0x000002d4:    a50f        ..      ADR      r5,{pc}+0x40 ; 0x314
        0x000002d6:    e002        ..      B        0x2de ; _printf_int_dec + 46
        0x000002d8:    0749        I.      LSLS     r1,r1,#29
        0x000002da:    d504        ..      BPL      0x2e6 ; _printf_int_dec + 54
        0x000002dc:    a50e        ..      ADR      r5,{pc}+0x3c ; 0x318
        0x000002de:    2601        .&      MOVS     r6,#1
        0x000002e0:    e001        ..      B        0x2e6 ; _printf_int_dec + 54
        0x000002e2:    46c0        .F      MOV      r8,r8
        0x000002e4:    46c0        .F      MOV      r8,r8
        0x000002e6:    9f00        ..      LDR      r7,[sp,#0]
        0x000002e8:    2400        .$      MOVS     r4,#0
        0x000002ea:    3724        $7      ADDS     r7,r7,#0x24
        0x000002ec:    e004        ..      B        0x2f8 ; _printf_int_dec + 72
        0x000002ee:    f000fb2e    ....    BL       __rt_udiv10 ; 0x94e
        0x000002f2:    3130        01      ADDS     r1,r1,#0x30
        0x000002f4:    5539        9U      STRB     r1,[r7,r4]
        0x000002f6:    1c64        d.      ADDS     r4,r4,#1
        0x000002f8:    2800        .(      CMP      r0,#0
        0x000002fa:    d1f8        ..      BNE      0x2ee ; _printf_int_dec + 62
        0x000002fc:    4633        3F      MOV      r3,r6
        0x000002fe:    462a        *F      MOV      r2,r5
        0x00000300:    4621        !F      MOV      r1,r4
        0x00000302:    9800        ..      LDR      r0,[sp,#0]
        0x00000304:    f000faae    ....    BL       _printf_int_common ; 0x864
        0x00000308:    bdfe        ..      POP      {r1-r7,pc}
    $d
        0x0000030a:    0000        ..      DCW    0
        0x0000030c:    00000000    ....    DCD    0
        0x00000310:    0000002d    -...    DCD    45
        0x00000314:    0000002b    +...    DCD    43
        0x00000318:    00000020     ...    DCD    32
    $t
    .text
    srand
        0x0000031c:    4a0c        .J      LDR      r2,[pc,#48] ; [0x350] = 0x20001078
        0x0000031e:    b530        0.      PUSH     {r4,r5,lr}
        0x00000320:    4611        .F      MOV      r1,r2
        0x00000322:    4c0c        .L      LDR      r4,[pc,#48] ; [0x354] = 0x66d619e1
        0x00000324:    3144        D1      ADDS     r1,r1,#0x44
        0x00000326:    460b        .F      MOV      r3,r1
        0x00000328:    3bc0        .;      SUBS     r3,r3,#0xc0
        0x0000032a:    620b        .b      STR      r3,[r1,#0x20]
        0x0000032c:    61ca        .a      STR      r2,[r1,#0x1c]
        0x0000032e:    2137        7!      MOVS     r1,#0x37
        0x00000330:    e006        ..      B        0x340 ; srand + 36
        0x00000332:    0c02        ..      LSRS     r2,r0,#16
        0x00000334:    008d        ..      LSLS     r5,r1,#2
        0x00000336:    1812        ..      ADDS     r2,r2,r0
        0x00000338:    515a        ZQ      STR      r2,[r3,r5]
        0x0000033a:    4a07        .J      LDR      r2,[pc,#28] ; [0x358] = 0x10dcd
        0x0000033c:    4350        PC      MULS     r0,r2,r0
        0x0000033e:    1900        ..      ADDS     r0,r0,r4
        0x00000340:    460a        .F      MOV      r2,r1
        0x00000342:    1e49        I.      SUBS     r1,r1,#1
        0x00000344:    2a00        .*      CMP      r2,#0
        0x00000346:    dcf4        ..      BGT      0x332 ; srand + 22
        0x00000348:    bd30        0.      POP      {r4,r5,pc}
    _rand_init
        0x0000034a:    2001        .       MOVS     r0,#1
        0x0000034c:    e7e6        ..      B        srand ; 0x31c
    $d
        0x0000034e:    0000        ..      DCW    0
        0x00000350:    20001078    x..     DCD    536875128
        0x00000354:    66d619e1    ...f    DCD    1725307361
        0x00000358:    00010dcd    ....    DCD    69069
    $t
    .text
    __aeabi_uidiv
    __aeabi_uidivmod
        0x0000035c:    2200        ."      MOVS     r2,#0
        0x0000035e:    0903        ..      LSRS     r3,r0,#4
        0x00000360:    428b        .B      CMP      r3,r1
        0x00000362:    d32c        ,.      BCC      0x3be ; __aeabi_idiv + 78
        0x00000364:    0a03        ..      LSRS     r3,r0,#8
        0x00000366:    428b        .B      CMP      r3,r1
        0x00000368:    d311        ..      BCC      0x38e ; __aeabi_idiv + 30
        0x0000036a:    2300        .#      MOVS     r3,#0
        0x0000036c:    469c        .F      MOV      r12,r3
        0x0000036e:    e04e        N.      B        0x40e ; __aeabi_idiv + 158
    __aeabi_idiv
    __aeabi_idivmod
        0x00000370:    4603        .F      MOV      r3,r0
        0x00000372:    430b        .C      ORRS     r3,r3,r1
        0x00000374:    d43c        <.      BMI      0x3f0 ; __aeabi_idiv + 128
        0x00000376:    2200        ."      MOVS     r2,#0
        0x00000378:    0843        C.      LSRS     r3,r0,#1
        0x0000037a:    428b        .B      CMP      r3,r1
        0x0000037c:    d331        1.      BCC      0x3e2 ; __aeabi_idiv + 114
        0x0000037e:    0903        ..      LSRS     r3,r0,#4
        0x00000380:    428b        .B      CMP      r3,r1
        0x00000382:    d31c        ..      BCC      0x3be ; __aeabi_idiv + 78
        0x00000384:    0a03        ..      LSRS     r3,r0,#8
        0x00000386:    428b        .B      CMP      r3,r1
        0x00000388:    d301        ..      BCC      0x38e ; __aeabi_idiv + 30
        0x0000038a:    4694        .F      MOV      r12,r2
        0x0000038c:    e03f        ?.      B        0x40e ; __aeabi_idiv + 158
        0x0000038e:    09c3        ..      LSRS     r3,r0,#7
        0x00000390:    428b        .B      CMP      r3,r1
        0x00000392:    d301        ..      BCC      0x398 ; __aeabi_idiv + 40
        0x00000394:    01cb        ..      LSLS     r3,r1,#7
        0x00000396:    1ac0        ..      SUBS     r0,r0,r3
        0x00000398:    4152        RA      ADCS     r2,r2,r2
        0x0000039a:    0983        ..      LSRS     r3,r0,#6
        0x0000039c:    428b        .B      CMP      r3,r1
        0x0000039e:    d301        ..      BCC      0x3a4 ; __aeabi_idiv + 52
        0x000003a0:    018b        ..      LSLS     r3,r1,#6
        0x000003a2:    1ac0        ..      SUBS     r0,r0,r3
        0x000003a4:    4152        RA      ADCS     r2,r2,r2
        0x000003a6:    0943        C.      LSRS     r3,r0,#5
        0x000003a8:    428b        .B      CMP      r3,r1
        0x000003aa:    d301        ..      BCC      0x3b0 ; __aeabi_idiv + 64
        0x000003ac:    014b        K.      LSLS     r3,r1,#5
        0x000003ae:    1ac0        ..      SUBS     r0,r0,r3
        0x000003b0:    4152        RA      ADCS     r2,r2,r2
        0x000003b2:    0903        ..      LSRS     r3,r0,#4
        0x000003b4:    428b        .B      CMP      r3,r1
        0x000003b6:    d301        ..      BCC      0x3bc ; __aeabi_idiv + 76
        0x000003b8:    010b        ..      LSLS     r3,r1,#4
        0x000003ba:    1ac0        ..      SUBS     r0,r0,r3
        0x000003bc:    4152        RA      ADCS     r2,r2,r2
        0x000003be:    08c3        ..      LSRS     r3,r0,#3
        0x000003c0:    428b        .B      CMP      r3,r1
        0x000003c2:    d301        ..      BCC      0x3c8 ; __aeabi_idiv + 88
        0x000003c4:    00cb        ..      LSLS     r3,r1,#3
        0x000003c6:    1ac0        ..      SUBS     r0,r0,r3
        0x000003c8:    4152        RA      ADCS     r2,r2,r2
        0x000003ca:    0883        ..      LSRS     r3,r0,#2
        0x000003cc:    428b        .B      CMP      r3,r1
        0x000003ce:    d301        ..      BCC      0x3d4 ; __aeabi_idiv + 100
        0x000003d0:    008b        ..      LSLS     r3,r1,#2
        0x000003d2:    1ac0        ..      SUBS     r0,r0,r3
        0x000003d4:    4152        RA      ADCS     r2,r2,r2
        0x000003d6:    0843        C.      LSRS     r3,r0,#1
        0x000003d8:    428b        .B      CMP      r3,r1
        0x000003da:    d301        ..      BCC      0x3e0 ; __aeabi_idiv + 112
        0x000003dc:    004b        K.      LSLS     r3,r1,#1
        0x000003de:    1ac0        ..      SUBS     r0,r0,r3
        0x000003e0:    4152        RA      ADCS     r2,r2,r2
        0x000003e2:    1a41        A.      SUBS     r1,r0,r1
        0x000003e4:    d200        ..      BCS      0x3e8 ; __aeabi_idiv + 120
        0x000003e6:    4601        .F      MOV      r1,r0
        0x000003e8:    4152        RA      ADCS     r2,r2,r2
        0x000003ea:    4610        .F      MOV      r0,r2
        0x000003ec:    4770        pG      BX       lr
        0x000003ee:    e05d        ].      B        0x4ac ; __aeabi_idiv + 316
        0x000003f0:    0fca        ..      LSRS     r2,r1,#31
        0x000003f2:    d000        ..      BEQ      0x3f6 ; __aeabi_idiv + 134
        0x000003f4:    4249        IB      RSBS     r1,r1,#0
        0x000003f6:    1003        ..      ASRS     r3,r0,#32
        0x000003f8:    d300        ..      BCC      0x3fc ; __aeabi_idiv + 140
        0x000003fa:    4240        @B      RSBS     r0,r0,#0
        0x000003fc:    4053        S@      EORS     r3,r3,r2
        0x000003fe:    2200        ."      MOVS     r2,#0
        0x00000400:    469c        .F      MOV      r12,r3
        0x00000402:    0903        ..      LSRS     r3,r0,#4
        0x00000404:    428b        .B      CMP      r3,r1
        0x00000406:    d32d        -.      BCC      0x464 ; __aeabi_idiv + 244
        0x00000408:    0a03        ..      LSRS     r3,r0,#8
        0x0000040a:    428b        .B      CMP      r3,r1
        0x0000040c:    d312        ..      BCC      0x434 ; __aeabi_idiv + 196
        0x0000040e:    22fc        ."      MOVS     r2,#0xfc
        0x00000410:    0189        ..      LSLS     r1,r1,#6
        0x00000412:    ba12        ..      REV      r2,r2
        0x00000414:    0a03        ..      LSRS     r3,r0,#8
        0x00000416:    428b        .B      CMP      r3,r1
        0x00000418:    d30c        ..      BCC      0x434 ; __aeabi_idiv + 196
        0x0000041a:    0189        ..      LSLS     r1,r1,#6
        0x0000041c:    1192        ..      ASRS     r2,r2,#6
        0x0000041e:    428b        .B      CMP      r3,r1
        0x00000420:    d308        ..      BCC      0x434 ; __aeabi_idiv + 196
        0x00000422:    0189        ..      LSLS     r1,r1,#6
        0x00000424:    1192        ..      ASRS     r2,r2,#6
        0x00000426:    428b        .B      CMP      r3,r1
        0x00000428:    d304        ..      BCC      0x434 ; __aeabi_idiv + 196
        0x0000042a:    0189        ..      LSLS     r1,r1,#6
        0x0000042c:    d03a        :.      BEQ      0x4a4 ; __aeabi_idiv + 308
        0x0000042e:    1192        ..      ASRS     r2,r2,#6
        0x00000430:    e000        ..      B        0x434 ; __aeabi_idiv + 196
        0x00000432:    0989        ..      LSRS     r1,r1,#6
        0x00000434:    09c3        ..      LSRS     r3,r0,#7
        0x00000436:    428b        .B      CMP      r3,r1
        0x00000438:    d301        ..      BCC      0x43e ; __aeabi_idiv + 206
        0x0000043a:    01cb        ..      LSLS     r3,r1,#7
        0x0000043c:    1ac0        ..      SUBS     r0,r0,r3
        0x0000043e:    4152        RA      ADCS     r2,r2,r2
        0x00000440:    0983        ..      LSRS     r3,r0,#6
        0x00000442:    428b        .B      CMP      r3,r1
        0x00000444:    d301        ..      BCC      0x44a ; __aeabi_idiv + 218
        0x00000446:    018b        ..      LSLS     r3,r1,#6
        0x00000448:    1ac0        ..      SUBS     r0,r0,r3
        0x0000044a:    4152        RA      ADCS     r2,r2,r2
        0x0000044c:    0943        C.      LSRS     r3,r0,#5
        0x0000044e:    428b        .B      CMP      r3,r1
        0x00000450:    d301        ..      BCC      0x456 ; __aeabi_idiv + 230
        0x00000452:    014b        K.      LSLS     r3,r1,#5
        0x00000454:    1ac0        ..      SUBS     r0,r0,r3
        0x00000456:    4152        RA      ADCS     r2,r2,r2
        0x00000458:    0903        ..      LSRS     r3,r0,#4
        0x0000045a:    428b        .B      CMP      r3,r1
        0x0000045c:    d301        ..      BCC      0x462 ; __aeabi_idiv + 242
        0x0000045e:    010b        ..      LSLS     r3,r1,#4
        0x00000460:    1ac0        ..      SUBS     r0,r0,r3
        0x00000462:    4152        RA      ADCS     r2,r2,r2
        0x00000464:    08c3        ..      LSRS     r3,r0,#3
        0x00000466:    428b        .B      CMP      r3,r1
        0x00000468:    d301        ..      BCC      0x46e ; __aeabi_idiv + 254
        0x0000046a:    00cb        ..      LSLS     r3,r1,#3
        0x0000046c:    1ac0        ..      SUBS     r0,r0,r3
        0x0000046e:    4152        RA      ADCS     r2,r2,r2
        0x00000470:    0883        ..      LSRS     r3,r0,#2
        0x00000472:    428b        .B      CMP      r3,r1
        0x00000474:    d301        ..      BCC      0x47a ; __aeabi_idiv + 266
        0x00000476:    008b        ..      LSLS     r3,r1,#2
        0x00000478:    1ac0        ..      SUBS     r0,r0,r3
        0x0000047a:    4152        RA      ADCS     r2,r2,r2
        0x0000047c:    d2d9        ..      BCS      0x432 ; __aeabi_idiv + 194
        0x0000047e:    0843        C.      LSRS     r3,r0,#1
        0x00000480:    428b        .B      CMP      r3,r1
        0x00000482:    d301        ..      BCC      0x488 ; __aeabi_idiv + 280
        0x00000484:    004b        K.      LSLS     r3,r1,#1
        0x00000486:    1ac0        ..      SUBS     r0,r0,r3
        0x00000488:    4152        RA      ADCS     r2,r2,r2
        0x0000048a:    1a41        A.      SUBS     r1,r0,r1
        0x0000048c:    d200        ..      BCS      0x490 ; __aeabi_idiv + 288
        0x0000048e:    4601        .F      MOV      r1,r0
        0x00000490:    4663        cF      MOV      r3,r12
        0x00000492:    4152        RA      ADCS     r2,r2,r2
        0x00000494:    105b        [.      ASRS     r3,r3,#1
        0x00000496:    4610        .F      MOV      r0,r2
        0x00000498:    d301        ..      BCC      0x49e ; __aeabi_idiv + 302
        0x0000049a:    4240        @B      RSBS     r0,r0,#0
        0x0000049c:    2b00        .+      CMP      r3,#0
        0x0000049e:    d500        ..      BPL      0x4a2 ; __aeabi_idiv + 306
        0x000004a0:    4249        IB      RSBS     r1,r1,#0
        0x000004a2:    4770        pG      BX       lr
        0x000004a4:    4663        cF      MOV      r3,r12
        0x000004a6:    105b        [.      ASRS     r3,r3,#1
        0x000004a8:    d300        ..      BCC      0x4ac ; __aeabi_idiv + 316
        0x000004aa:    4240        @B      RSBS     r0,r0,#0
        0x000004ac:    b501        ..      PUSH     {r0,lr}
        0x000004ae:    2000        .       MOVS     r0,#0
        0x000004b0:    46c0        .F      MOV      r8,r8
        0x000004b2:    46c0        .F      MOV      r8,r8
        0x000004b4:    bd02        ..      POP      {r1,pc}
    .text
    __use_two_region_memory
        0x000004b6:    4770        pG      BX       lr
    __rt_heap_escrow$2region
        0x000004b8:    4770        pG      BX       lr
    __rt_heap_expand$2region
        0x000004ba:    4770        pG      BX       lr
    .text
    __aeabi_d2f
    _d2f
        0x000004bc:    4602        .F      MOV      r2,r0
        0x000004be:    0fc8        ..      LSRS     r0,r1,#31
        0x000004c0:    07c0        ..      LSLS     r0,r0,#31
        0x000004c2:    4381        .C      BICS     r1,r1,r0
        0x000004c4:    004b        K.      LSLS     r3,r1,#1
        0x000004c6:    b530        0.      PUSH     {r4,r5,lr}
        0x000004c8:    404b        K@      EORS     r3,r3,r1
        0x000004ca:    005b        [.      LSLS     r3,r3,#1
        0x000004cc:    0d9b        ..      LSRS     r3,r3,#22
        0x000004ce:    d020         .      BEQ      0x512 ; __aeabi_d2f + 86
        0x000004d0:    2319        .#      MOVS     r3,#0x19
        0x000004d2:    06db        ..      LSLS     r3,r3,#27
        0x000004d4:    18c9        ..      ADDS     r1,r1,r3
        0x000004d6:    2301        .#      MOVS     r3,#1
        0x000004d8:    051b        ..      LSLS     r3,r3,#20
        0x000004da:    4299        .B      CMP      r1,r3
        0x000004dc:    db20         .      BLT      0x520 ; __aeabi_d2f + 100
        0x000004de:    2403        .$      MOVS     r4,#3
        0x000004e0:    07a4        ..      LSLS     r4,r4,#30
        0x000004e2:    2504        .%      MOVS     r5,#4
        0x000004e4:    4613        .F      MOV      r3,r2
        0x000004e6:    40ab        .@      LSLS     r3,r3,r5
        0x000004e8:    d30b        ..      BCC      0x502 ; __aeabi_d2f + 70
        0x000004ea:    2b00        .+      CMP      r3,#0
        0x000004ec:    d104        ..      BNE      0x4f8 ; __aeabi_d2f + 60
        0x000004ee:    06eb        ..      LSLS     r3,r5,#27
        0x000004f0:    4013        .@      ANDS     r3,r3,r2
        0x000004f2:    009b        ..      LSLS     r3,r3,#2
        0x000004f4:    191b        ..      ADDS     r3,r3,r4
        0x000004f6:    d404        ..      BMI      0x502 ; __aeabi_d2f + 70
        0x000004f8:    2401        .$      MOVS     r4,#1
        0x000004fa:    0764        d.      LSLS     r4,r4,#29
        0x000004fc:    2300        .#      MOVS     r3,#0
        0x000004fe:    1912        ..      ADDS     r2,r2,r4
        0x00000500:    4159        YA      ADCS     r1,r1,r3
        0x00000502:    23ff        .#      MOVS     r3,#0xff
        0x00000504:    051b        ..      LSLS     r3,r3,#20
        0x00000506:    4299        .B      CMP      r1,r3
        0x00000508:    d20b        ..      BCS      0x522 ; __aeabi_d2f + 102
        0x0000050a:    00c9        ..      LSLS     r1,r1,#3
        0x0000050c:    4301        .C      ORRS     r1,r1,r0
        0x0000050e:    0f50        P.      LSRS     r0,r2,#29
        0x00000510:    e009        ..      B        0x526 ; __aeabi_d2f + 106
        0x00000512:    02cb        ..      LSLS     r3,r1,#11
        0x00000514:    d504        ..      BPL      0x520 ; __aeabi_d2f + 100
        0x00000516:    4301        .C      ORRS     r1,r1,r0
        0x00000518:    0308        ..      LSLS     r0,r1,#12
        0x0000051a:    4302        .C      ORRS     r2,r2,r0
        0x0000051c:    d005        ..      BEQ      0x52a ; __aeabi_d2f + 110
        0x0000051e:    4805        .H      LDR      r0,[pc,#20] ; [0x534] = 0x7fc00000
        0x00000520:    bd30        0.      POP      {r4,r5,pc}
        0x00000522:    21ff        .!      MOVS     r1,#0xff
        0x00000524:    05c9        ..      LSLS     r1,r1,#23
        0x00000526:    4308        .C      ORRS     r0,r0,r1
        0x00000528:    bd30        0.      POP      {r4,r5,pc}
        0x0000052a:    4608        .F      MOV      r0,r1
        0x0000052c:    2107        .!      MOVS     r1,#7
        0x0000052e:    0509        ..      LSLS     r1,r1,#20
        0x00000530:    4388        .C      BICS     r0,r0,r1
        0x00000532:    bd30        0.      POP      {r4,r5,pc}
    $d
        0x00000534:    7fc00000    ....    DCD    2143289344
    $t
    .text
    __aeabi_dmul
    _dmul
        0x00000538:    b5f0        ..      PUSH     {r4-r7,lr}
        0x0000053a:    4c9e        .L      LDR      r4,[pc,#632] ; [0x7b4] = 0x7ff0000
        0x0000053c:    090d        ..      LSRS     r5,r1,#4
        0x0000053e:    4626        &F      MOV      r6,r4
        0x00000540:    46ac        .F      MOV      r12,r5
        0x00000542:    43ae        .C      BICS     r6,r6,r5
        0x00000544:    460d        .F      MOV      r5,r1
        0x00000546:    405d        ]@      EORS     r5,r5,r3
        0x00000548:    b089        ..      SUB      sp,sp,#0x24
        0x0000054a:    2e00        ..      CMP      r6,#0
        0x0000054c:    d07e        ~.      BEQ      0x64c ; __aeabi_dmul + 276
        0x0000054e:    091e        ..      LSRS     r6,r3,#4
        0x00000550:    4627        'F      MOV      r7,r4
        0x00000552:    43b7        .C      BICS     r7,r7,r6
        0x00000554:    d0fa        ..      BEQ      0x54c ; __aeabi_dmul + 20
        0x00000556:    4667        gF      MOV      r7,r12
        0x00000558:    4027        '@      ANDS     r7,r7,r4
        0x0000055a:    0fed        ..      LSRS     r5,r5,#31
        0x0000055c:    433d        =C      ORRS     r5,r5,r7
        0x0000055e:    4026        &@      ANDS     r6,r6,r4
        0x00000560:    d075        u.      BEQ      0x64e ; __aeabi_dmul + 278
        0x00000562:    0124        $.      LSLS     r4,r4,#4
        0x00000564:    4221        !B      TST      r1,r4
        0x00000566:    d0fb        ..      BEQ      0x560 ; __aeabi_dmul + 40
        0x00000568:    1974        t.      ADDS     r4,r6,r5
        0x0000056a:    25ff        .%      MOVS     r5,#0xff
        0x0000056c:    04ad        ..      LSLS     r5,r5,#18
        0x0000056e:    1b64        d.      SUBS     r4,r4,r5
        0x00000570:    9404        ..      STR      r4,[sp,#0x10]
        0x00000572:    02cc        ..      LSLS     r4,r1,#11
        0x00000574:    02d9        ..      LSLS     r1,r3,#11
        0x00000576:    2301        .#      MOVS     r3,#1
        0x00000578:    051b        ..      LSLS     r3,r3,#20
        0x0000057a:    0ae4        ..      LSRS     r4,r4,#11
        0x0000057c:    0ac9        ..      LSRS     r1,r1,#11
        0x0000057e:    431c        .C      ORRS     r4,r4,r3
        0x00000580:    4319        .C      ORRS     r1,r1,r3
        0x00000582:    0124        $.      LSLS     r4,r4,#4
        0x00000584:    0f03        ..      LSRS     r3,r0,#28
        0x00000586:    431c        .C      ORRS     r4,r4,r3
        0x00000588:    010b        ..      LSLS     r3,r1,#4
        0x0000058a:    0105        ..      LSLS     r5,r0,#4
        0x0000058c:    0f11        ..      LSRS     r1,r2,#28
        0x0000058e:    430b        .C      ORRS     r3,r3,r1
        0x00000590:    0ba0        ..      LSRS     r0,r4,#14
        0x00000592:    0381        ..      LSLS     r1,r0,#14
        0x00000594:    092d        -.      LSRS     r5,r5,#4
        0x00000596:    0116        ..      LSLS     r6,r2,#4
        0x00000598:    438c        .C      BICS     r4,r4,r1
        0x0000059a:    0ba9        ..      LSRS     r1,r5,#14
        0x0000059c:    038a        ..      LSLS     r2,r1,#14
        0x0000059e:    4395        .C      BICS     r5,r5,r2
        0x000005a0:    0b9a        ..      LSRS     r2,r3,#14
        0x000005a2:    0397        ..      LSLS     r7,r2,#14
        0x000005a4:    43bb        .C      BICS     r3,r3,r7
        0x000005a6:    0936        6.      LSRS     r6,r6,#4
        0x000005a8:    469c        .F      MOV      r12,r3
        0x000005aa:    0bb3        ..      LSRS     r3,r6,#14
        0x000005ac:    039f        ..      LSLS     r7,r3,#14
        0x000005ae:    43be        .C      BICS     r6,r6,r7
        0x000005b0:    460f        .F      MOV      r7,r1
        0x000005b2:    435f        _C      MULS     r7,r3,r7
        0x000005b4:    9703        ..      STR      r7,[sp,#0xc]
        0x000005b6:    462f        /F      MOV      r7,r5
        0x000005b8:    4377        wC      MULS     r7,r6,r7
        0x000005ba:    9602        ..      STR      r6,[sp,#8]
        0x000005bc:    194e        N.      ADDS     r6,r1,r5
        0x000005be:    46be        .F      MOV      lr,r7
        0x000005c0:    9607        ..      STR      r6,[sp,#0x1c]
        0x000005c2:    9f02        ..      LDR      r7,[sp,#8]
        0x000005c4:    19df        ..      ADDS     r7,r3,r7
        0x000005c6:    437e        ~C      MULS     r6,r7,r6
        0x000005c8:    9705        ..      STR      r7,[sp,#0x14]
        0x000005ca:    9f03        ..      LDR      r7,[sp,#0xc]
        0x000005cc:    1bf7        ..      SUBS     r7,r6,r7
        0x000005ce:    4676        vF      MOV      r6,lr
        0x000005d0:    1bbe        ..      SUBS     r6,r7,r6
        0x000005d2:    4677        wF      MOV      r7,lr
        0x000005d4:    013f        ?.      LSLS     r7,r7,#4
        0x000005d6:    9700        ..      STR      r7,[sp,#0]
        0x000005d8:    9601        ..      STR      r6,[sp,#4]
        0x000005da:    9f03        ..      LDR      r7,[sp,#0xc]
        0x000005dc:    0bb6        ..      LSRS     r6,r6,#14
        0x000005de:    19f6        ..      ADDS     r6,r6,r7
        0x000005e0:    46b6        .F      MOV      lr,r6
        0x000005e2:    9e01        ..      LDR      r6,[sp,#4]
        0x000005e4:    9f00        ..      LDR      r7,[sp,#0]
        0x000005e6:    04b6        ..      LSLS     r6,r6,#18
        0x000005e8:    19bf        ..      ADDS     r7,r7,r6
        0x000005ea:    d302        ..      BCC      0x5f2 ; __aeabi_dmul + 186
        0x000005ec:    4676        vF      MOV      r6,lr
        0x000005ee:    1c76        v.      ADDS     r6,r6,#1
        0x000005f0:    46b6        .F      MOV      lr,r6
        0x000005f2:    4676        vF      MOV      r6,lr
        0x000005f4:    0076        v.      LSLS     r6,r6,#1
        0x000005f6:    2f00        ./      CMP      r7,#0
        0x000005f8:    d001        ..      BEQ      0x5fe ; __aeabi_dmul + 198
        0x000005fa:    2701        .'      MOVS     r7,#1
        0x000005fc:    433e        >C      ORRS     r6,r6,r7
        0x000005fe:    4667        gF      MOV      r7,r12
        0x00000600:    437d        }C      MULS     r5,r7,r5
        0x00000602:    9506        ..      STR      r5,[sp,#0x18]
        0x00000604:    9d02        ..      LDR      r5,[sp,#8]
        0x00000606:    4627        'F      MOV      r7,r4
        0x00000608:    436f        oC      MULS     r7,r5,r7
        0x0000060a:    9700        ..      STR      r7,[sp,#0]
        0x0000060c:    007f        ..      LSLS     r7,r7,#1
        0x0000060e:    9d06        ..      LDR      r5,[sp,#0x18]
        0x00000610:    19be        ..      ADDS     r6,r7,r6
        0x00000612:    006f        o.      LSLS     r7,r5,#1
        0x00000614:    19bd        ..      ADDS     r5,r7,r6
        0x00000616:    4666        fF      MOV      r6,r12
        0x00000618:    1996        ..      ADDS     r6,r2,r6
        0x0000061a:    9f07        ..      LDR      r7,[sp,#0x1c]
        0x0000061c:    46ae        .F      MOV      lr,r5
        0x0000061e:    4377        wC      MULS     r7,r6,r7
        0x00000620:    9d06        ..      LDR      r5,[sp,#0x18]
        0x00000622:    9603        ..      STR      r6,[sp,#0xc]
        0x00000624:    1b7d        }.      SUBS     r5,r7,r5
        0x00000626:    9501        ..      STR      r5,[sp,#4]
        0x00000628:    1906        ..      ADDS     r6,r0,r4
        0x0000062a:    9d05        ..      LDR      r5,[sp,#0x14]
        0x0000062c:    9f00        ..      LDR      r7,[sp,#0]
        0x0000062e:    4375        uC      MULS     r5,r6,r5
        0x00000630:    9602        ..      STR      r6,[sp,#8]
        0x00000632:    1bee        ..      SUBS     r6,r5,r7
        0x00000634:    9d01        ..      LDR      r5,[sp,#4]
        0x00000636:    4351        QC      MULS     r1,r2,r1
        0x00000638:    1a6d        m.      SUBS     r5,r5,r1
        0x0000063a:    4607        .F      MOV      r7,r0
        0x0000063c:    435f        _C      MULS     r7,r3,r7
        0x0000063e:    1bf3        ..      SUBS     r3,r6,r7
        0x00000640:    9501        ..      STR      r5,[sp,#4]
        0x00000642:    9300        ..      STR      r3,[sp,#0]
        0x00000644:    4675        uF      MOV      r5,lr
        0x00000646:    06eb        ..      LSLS     r3,r5,#27
        0x00000648:    4673        sF      MOV      r3,lr
        0x0000064a:    e001        ..      B        0x650 ; __aeabi_dmul + 280
        0x0000064c:    e092        ..      B        0x774 ; __aeabi_dmul + 572
        0x0000064e:    e08e        ..      B        0x76e ; __aeabi_dmul + 566
        0x00000650:    d003        ..      BEQ      0x65a ; __aeabi_dmul + 290
        0x00000652:    095b        [.      LSRS     r3,r3,#5
        0x00000654:    2501        .%      MOVS     r5,#1
        0x00000656:    432b        +C      ORRS     r3,r3,r5
        0x00000658:    e000        ..      B        0x65c ; __aeabi_dmul + 292
        0x0000065a:    095b        [.      LSRS     r3,r3,#5
        0x0000065c:    2600        .&      MOVS     r6,#0
        0x0000065e:    4635        5F      MOV      r5,r6
        0x00000660:    46b6        .F      MOV      lr,r6
        0x00000662:    0a0e        ..      LSRS     r6,r1,#8
        0x00000664:    062d        -.      LSLS     r5,r5,#24
        0x00000666:    0609        ..      LSLS     r1,r1,#24
        0x00000668:    4335        5C      ORRS     r5,r5,r6
        0x0000066a:    18cb        ..      ADDS     r3,r1,r3
        0x0000066c:    4676        vF      MOV      r6,lr
        0x0000066e:    4175        uA      ADCS     r5,r5,r6
        0x00000670:    46ae        .F      MOV      lr,r5
        0x00000672:    2100        .!      MOVS     r1,#0
        0x00000674:    0a3d        =.      LSRS     r5,r7,#8
        0x00000676:    0609        ..      LSLS     r1,r1,#24
        0x00000678:    063e        >.      LSLS     r6,r7,#24
        0x0000067a:    4329        )C      ORRS     r1,r1,r5
        0x0000067c:    18f6        ..      ADDS     r6,r6,r3
        0x0000067e:    4675        uF      MOV      r5,lr
        0x00000680:    4169        iA      ADCS     r1,r1,r5
        0x00000682:    46b6        .F      MOV      lr,r6
        0x00000684:    9b01        ..      LDR      r3,[sp,#4]
        0x00000686:    2600        .&      MOVS     r6,#0
        0x00000688:    0d9d        ..      LSRS     r5,r3,#22
        0x0000068a:    02b7        ..      LSLS     r7,r6,#10
        0x0000068c:    432f        /C      ORRS     r7,r7,r5
        0x0000068e:    029b        ..      LSLS     r3,r3,#10
        0x00000690:    4676        vF      MOV      r6,lr
        0x00000692:    199b        ..      ADDS     r3,r3,r6
        0x00000694:    414f        OA      ADCS     r7,r7,r1
        0x00000696:    9900        ..      LDR      r1,[sp,#0]
        0x00000698:    2500        .%      MOVS     r5,#0
        0x0000069a:    0d8e        ..      LSRS     r6,r1,#22
        0x0000069c:    02ad        ..      LSLS     r5,r5,#10
        0x0000069e:    0289        ..      LSLS     r1,r1,#10
        0x000006a0:    18c9        ..      ADDS     r1,r1,r3
        0x000006a2:    4335        5C      ORRS     r5,r5,r6
        0x000006a4:    417d        }A      ADCS     r5,r5,r7
        0x000006a6:    4350        PC      MULS     r0,r2,r0
        0x000006a8:    4662        bF      MOV      r2,r12
        0x000006aa:    4354        TC      MULS     r4,r2,r4
        0x000006ac:    9b03        ..      LDR      r3,[sp,#0xc]
        0x000006ae:    9a02        ..      LDR      r2,[sp,#8]
        0x000006b0:    435a        ZC      MULS     r2,r3,r2
        0x000006b2:    1a12        ..      SUBS     r2,r2,r0
        0x000006b4:    1b16        ..      SUBS     r6,r2,r4
        0x000006b6:    2200        ."      MOVS     r2,#0
        0x000006b8:    0eb7        ..      LSRS     r7,r6,#26
        0x000006ba:    0193        ..      LSLS     r3,r2,#6
        0x000006bc:    01b6        ..      LSLS     r6,r6,#6
        0x000006be:    1975        u.      ADDS     r5,r6,r5
        0x000006c0:    433b        ;C      ORRS     r3,r3,r7
        0x000006c2:    4153        SA      ADCS     r3,r3,r2
        0x000006c4:    0b07        ..      LSRS     r7,r0,#12
        0x000006c6:    0512        ..      LSLS     r2,r2,#20
        0x000006c8:    0500        ..      LSLS     r0,r0,#20
        0x000006ca:    1945        E.      ADDS     r5,r0,r5
        0x000006cc:    433a        :C      ORRS     r2,r2,r7
        0x000006ce:    415a        ZA      ADCS     r2,r2,r3
        0x000006d0:    2000        .       MOVS     r0,#0
        0x000006d2:    0603        ..      LSLS     r3,r0,#24
        0x000006d4:    0a27        '.      LSRS     r7,r4,#8
        0x000006d6:    0620         .      LSLS     r0,r4,#24
        0x000006d8:    433b        ;C      ORRS     r3,r3,r7
        0x000006da:    1844        D.      ADDS     r4,r0,r1
        0x000006dc:    2614        .&      MOVS     r6,#0x14
        0x000006de:    416b        kA      ADCS     r3,r3,r5
        0x000006e0:    42ab        .B      CMP      r3,r5
        0x000006e2:    d200        ..      BCS      0x6e6 ; __aeabi_dmul + 430
        0x000006e4:    1c52        R.      ADDS     r2,r2,#1
        0x000006e6:    2001        .       MOVS     r0,#1
        0x000006e8:    0240        @.      LSLS     r0,r0,#9
        0x000006ea:    4282        .B      CMP      r2,r0
        0x000006ec:    d303        ..      BCC      0x6f6 ; __aeabi_dmul + 446
        0x000006ee:    2615        .&      MOVS     r6,#0x15
        0x000006f0:    2102        .!      MOVS     r1,#2
        0x000006f2:    43c9        .C      MVNS     r1,r1
        0x000006f4:    e001        ..      B        0x6fa ; __aeabi_dmul + 450
        0x000006f6:    2103        .!      MOVS     r1,#3
        0x000006f8:    43c9        .C      MVNS     r1,r1
        0x000006fa:    2020                MOVS     r0,#0x20
        0x000006fc:    1b85        ..      SUBS     r5,r0,r6
        0x000006fe:    40aa        .@      LSLS     r2,r2,r5
        0x00000700:    461f        .F      MOV      r7,r3
        0x00000702:    40af        .@      LSLS     r7,r7,r5
        0x00000704:    40f3        .@      LSRS     r3,r3,r6
        0x00000706:    4313        .C      ORRS     r3,r3,r2
        0x00000708:    4620         F      MOV      r0,r4
        0x0000070a:    9a04        ..      LDR      r2,[sp,#0x10]
        0x0000070c:    40f0        .@      LSRS     r0,r0,r6
        0x0000070e:    1412        ..      ASRS     r2,r2,#16
        0x00000710:    1889        ..      ADDS     r1,r1,r2
        0x00000712:    0509        ..      LSLS     r1,r1,#20
        0x00000714:    185a        Z.      ADDS     r2,r3,r1
        0x00000716:    9904        ..      LDR      r1,[sp,#0x10]
        0x00000718:    4338        8C      ORRS     r0,r0,r7
        0x0000071a:    07c9        ..      LSLS     r1,r1,#31
        0x0000071c:    4051        Q@      EORS     r1,r1,r2
        0x0000071e:    40ac        .@      LSLS     r4,r4,r5
        0x00000720:    d009        ..      BEQ      0x736 ; __aeabi_dmul + 510
        0x00000722:    2301        .#      MOVS     r3,#1
        0x00000724:    409c        .@      LSLS     r4,r4,r3
        0x00000726:    d306        ..      BCC      0x736 ; __aeabi_dmul + 510
        0x00000728:    2300        .#      MOVS     r3,#0
        0x0000072a:    1c40        @.      ADDS     r0,r0,#1
        0x0000072c:    4159        YA      ADCS     r1,r1,r3
        0x0000072e:    2c00        .,      CMP      r4,#0
        0x00000730:    d101        ..      BNE      0x736 ; __aeabi_dmul + 510
        0x00000732:    0840        @.      LSRS     r0,r0,#1
        0x00000734:    0040        @.      LSLS     r0,r0,#1
        0x00000736:    4b20         K      LDR      r3,[pc,#128] ; [0x7b8] = 0x7ff00000
        0x00000738:    2a00        .*      CMP      r2,#0
        0x0000073a:    db03        ..      BLT      0x744 ; __aeabi_dmul + 524
        0x0000073c:    421a        .B      TST      r2,r3
        0x0000073e:    d001        ..      BEQ      0x744 ; __aeabi_dmul + 524
        0x00000740:    438b        .C      BICS     r3,r3,r1
        0x00000742:    d112        ..      BNE      0x76a ; __aeabi_dmul + 562
        0x00000744:    2201        ."      MOVS     r2,#1
        0x00000746:    9804        ..      LDR      r0,[sp,#0x10]
        0x00000748:    0692        ..      LSLS     r2,r2,#26
        0x0000074a:    4290        .B      CMP      r0,r2
        0x0000074c:    db07        ..      BLT      0x75e ; __aeabi_dmul + 550
        0x0000074e:    2005        .       MOVS     r0,#5
        0x00000750:    0740        @.      LSLS     r0,r0,#29
        0x00000752:    1809        ..      ADDS     r1,r1,r0
        0x00000754:    4819        .H      LDR      r0,[pc,#100] ; [0x7bc] = 0x7fffffff
        0x00000756:    4301        .C      ORRS     r1,r1,r0
        0x00000758:    12c0        ..      ASRS     r0,r0,#11
        0x0000075a:    4041        A@      EORS     r1,r1,r0
        0x0000075c:    e004        ..      B        0x768 ; __aeabi_dmul + 560
        0x0000075e:    2003        .       MOVS     r0,#3
        0x00000760:    0740        @.      LSLS     r0,r0,#29
        0x00000762:    1808        ..      ADDS     r0,r1,r0
        0x00000764:    0fc1        ..      LSRS     r1,r0,#31
        0x00000766:    07c9        ..      LSLS     r1,r1,#31
        0x00000768:    2000        .       MOVS     r0,#0
        0x0000076a:    b009        ..      ADD      sp,sp,#0x24
        0x0000076c:    bdf0        ..      POP      {r4-r7,pc}
        0x0000076e:    2000        .       MOVS     r0,#0
        0x00000770:    07e9        ..      LSLS     r1,r5,#31
        0x00000772:    e7fa        ..      B        0x76a ; __aeabi_dmul + 562
        0x00000774:    1806        ..      ADDS     r6,r0,r0
        0x00000776:    460c        .F      MOV      r4,r1
        0x00000778:    414c        LA      ADCS     r4,r4,r1
        0x0000077a:    4811        .H      LDR      r0,[pc,#68] ; [0x7c0] = 0xffe00000
        0x0000077c:    4276        vB      RSBS     r6,r6,#0
        0x0000077e:    41a0        .A      SBCS     r0,r0,r4
        0x00000780:    d314        ..      BCC      0x7ac ; __aeabi_dmul + 628
        0x00000782:    1894        ..      ADDS     r4,r2,r2
        0x00000784:    461a        .F      MOV      r2,r3
        0x00000786:    415a        ZA      ADCS     r2,r2,r3
        0x00000788:    480d        .H      LDR      r0,[pc,#52] ; [0x7c0] = 0xffe00000
        0x0000078a:    4264        dB      RSBS     r4,r4,#0
        0x0000078c:    4190        .A      SBCS     r0,r0,r2
        0x0000078e:    d30d        ..      BCC      0x7ac ; __aeabi_dmul + 628
        0x00000790:    2001        .       MOVS     r0,#1
        0x00000792:    0049        I.      LSLS     r1,r1,#1
        0x00000794:    0540        @.      LSLS     r0,r0,#21
        0x00000796:    4281        .B      CMP      r1,r0
        0x00000798:    d308        ..      BCC      0x7ac ; __aeabi_dmul + 628
        0x0000079a:    0059        Y.      LSLS     r1,r3,#1
        0x0000079c:    4281        .B      CMP      r1,r0
        0x0000079e:    d305        ..      BCC      0x7ac ; __aeabi_dmul + 628
        0x000007a0:    0fe9        ..      LSRS     r1,r5,#31
        0x000007a2:    4a05        .J      LDR      r2,[pc,#20] ; [0x7b8] = 0x7ff00000
        0x000007a4:    07c9        ..      LSLS     r1,r1,#31
        0x000007a6:    2000        .       MOVS     r0,#0
        0x000007a8:    4311        .C      ORRS     r1,r1,r2
        0x000007aa:    e7de        ..      B        0x76a ; __aeabi_dmul + 562
        0x000007ac:    2000        .       MOVS     r0,#0
        0x000007ae:    4905        .I      LDR      r1,[pc,#20] ; [0x7c4] = 0x7ff80000
        0x000007b0:    e7db        ..      B        0x76a ; __aeabi_dmul + 562
    $d
        0x000007b2:    0000        ..      DCW    0
        0x000007b4:    07ff0000    ....    DCD    134152192
        0x000007b8:    7ff00000    ....    DCD    2146435072
        0x000007bc:    7fffffff    ....    DCD    2147483647
        0x000007c0:    ffe00000    ....    DCD    4292870144
        0x000007c4:    7ff80000    ....    DCD    2146959360
    $t
    .text
    __aeabi_f2d
    _f2d
        0x000007c8:    2101        .!      MOVS     r1,#1
        0x000007ca:    05c9        ..      LSLS     r1,r1,#23
        0x000007cc:    1841        A.      ADDS     r1,r0,r1
        0x000007ce:    004a        J.      LSLS     r2,r1,#1
        0x000007d0:    0e52        R.      LSRS     r2,r2,#25
        0x000007d2:    d00b        ..      BEQ      0x7ec ; __aeabi_f2d + 36
        0x000007d4:    10c1        ..      ASRS     r1,r0,#3
        0x000007d6:    2207        ."      MOVS     r2,#7
        0x000007d8:    06d2        ..      LSLS     r2,r2,#27
        0x000007da:    1889        ..      ADDS     r1,r1,r2
        0x000007dc:    0740        @.      LSLS     r0,r0,#29
        0x000007de:    4252        RB      RSBS     r2,r2,#0
        0x000007e0:    188a        ..      ADDS     r2,r1,r2
        0x000007e2:    d502        ..      BPL      0x7ea ; __aeabi_f2d + 34
        0x000007e4:    2209        ."      MOVS     r2,#9
        0x000007e6:    0712        ..      LSLS     r2,r2,#28
        0x000007e8:    1889        ..      ADDS     r1,r1,r2
        0x000007ea:    4770        pG      BX       lr
        0x000007ec:    0209        ..      LSLS     r1,r1,#8
        0x000007ee:    d506        ..      BPL      0x7fe ; __aeabi_f2d + 54
        0x000007f0:    4601        .F      MOV      r1,r0
        0x000007f2:    0040        @.      LSLS     r0,r0,#1
        0x000007f4:    d0f9        ..      BEQ      0x7ea ; __aeabi_f2d + 34
        0x000007f6:    0fc9        ..      LSRS     r1,r1,#31
        0x000007f8:    07c9        ..      LSLS     r1,r1,#31
        0x000007fa:    2000        .       MOVS     r0,#0
        0x000007fc:    4770        pG      BX       lr
        0x000007fe:    0242        B.      LSLS     r2,r0,#9
        0x00000800:    d002        ..      BEQ      0x808 ; __aeabi_f2d + 64
        0x00000802:    2000        .       MOVS     r0,#0
        0x00000804:    4903        .I      LDR      r1,[pc,#12] ; [0x814] = 0x7ff80000
        0x00000806:    4770        pG      BX       lr
        0x00000808:    2107        .!      MOVS     r1,#7
        0x0000080a:    0509        ..      LSLS     r1,r1,#20
        0x0000080c:    4301        .C      ORRS     r1,r1,r0
        0x0000080e:    4610        .F      MOV      r0,r2
        0x00000810:    4770        pG      BX       lr
    $d
        0x00000812:    0000        ..      DCW    0
        0x00000814:    7ff80000    ....    DCD    2146959360
    $t
    .text
    __aeabi_f2iz
    _ffix
        0x00000818:    b510        ..      PUSH     {r4,lr}
        0x0000081a:    4602        .F      MOV      r2,r0
        0x0000081c:    249e        .$      MOVS     r4,#0x9e
        0x0000081e:    0200        ..      LSLS     r0,r0,#8
        0x00000820:    15d1        ..      ASRS     r1,r2,#23
        0x00000822:    07a3        ..      LSLS     r3,r4,#30
        0x00000824:    2900        .)      CMP      r1,#0
        0x00000826:    d002        ..      BEQ      0x82e ; __aeabi_f2iz + 22
        0x00000828:    4318        .C      ORRS     r0,r0,r3
        0x0000082a:    2900        .)      CMP      r1,#0
        0x0000082c:    db04        ..      BLT      0x838 ; __aeabi_f2iz + 32
        0x0000082e:    1a61        a.      SUBS     r1,r4,r1
        0x00000830:    2900        .)      CMP      r1,#0
        0x00000832:    dd0c        ..      BLE      0x84e ; __aeabi_f2iz + 54
        0x00000834:    40c8        .@      LSRS     r0,r0,r1
        0x00000836:    bd10        ..      POP      {r4,pc}
        0x00000838:    0609        ..      LSLS     r1,r1,#24
        0x0000083a:    0e09        ..      LSRS     r1,r1,#24
        0x0000083c:    d101        ..      BNE      0x842 ; __aeabi_f2iz + 42
        0x0000083e:    0040        @.      LSLS     r0,r0,#1
        0x00000840:    0840        @.      LSRS     r0,r0,#1
        0x00000842:    1a61        a.      SUBS     r1,r4,r1
        0x00000844:    d403        ..      BMI      0x84e ; __aeabi_f2iz + 54
        0x00000846:    40c8        .@      LSRS     r0,r0,r1
        0x00000848:    4240        @B      RSBS     r0,r0,#0
        0x0000084a:    2800        .(      CMP      r0,#0
        0x0000084c:    ddf3        ..      BLE      0x836 ; __aeabi_f2iz + 30
        0x0000084e:    21ff        .!      MOVS     r1,#0xff
        0x00000850:    0050        P.      LSLS     r0,r2,#1
        0x00000852:    0609        ..      LSLS     r1,r1,#24
        0x00000854:    4288        .B      CMP      r0,r1
        0x00000856:    d901        ..      BLS      0x85c ; __aeabi_f2iz + 68
        0x00000858:    2000        .       MOVS     r0,#0
        0x0000085a:    bd10        ..      POP      {r4,pc}
        0x0000085c:    17d0        ..      ASRS     r0,r2,#31
        0x0000085e:    43c0        .C      MVNS     r0,r0
        0x00000860:    4058        X@      EORS     r0,r0,r3
        0x00000862:    bd10        ..      POP      {r4,pc}
    .text
    _printf_int_common
        0x00000864:    b5ff        ..      PUSH     {r0-r7,lr}
        0x00000866:    4604        .F      MOV      r4,r0
        0x00000868:    460d        .F      MOV      r5,r1
        0x0000086a:    b081        ..      SUB      sp,sp,#4
        0x0000086c:    3024        $0      ADDS     r0,r0,#0x24
        0x0000086e:    9000        ..      STR      r0,[sp,#0]
        0x00000870:    6821        !h      LDR      r1,[r4,#0]
        0x00000872:    0688        ..      LSLS     r0,r1,#26
        0x00000874:    d504        ..      BPL      0x880 ; _printf_int_common + 28
        0x00000876:    2210        ."      MOVS     r2,#0x10
        0x00000878:    69e0        .i      LDR      r0,[r4,#0x1c]
        0x0000087a:    4391        .C      BICS     r1,r1,r2
        0x0000087c:    6021        !`      STR      r1,[r4,#0]
        0x0000087e:    e000        ..      B        0x882 ; _printf_int_common + 30
        0x00000880:    2001        .       MOVS     r0,#1
        0x00000882:    42a8        .B      CMP      r0,r5
        0x00000884:    dd01        ..      BLE      0x88a ; _printf_int_common + 38
        0x00000886:    1b47        G.      SUBS     r7,r0,r5
        0x00000888:    e000        ..      B        0x88c ; _printf_int_common + 40
        0x0000088a:    2700        .'      MOVS     r7,#0
        0x0000088c:    9804        ..      LDR      r0,[sp,#0x10]
        0x0000088e:    69a1        .i      LDR      r1,[r4,#0x18]
        0x00000890:    197a        z.      ADDS     r2,r7,r5
        0x00000892:    1810        ..      ADDS     r0,r2,r0
        0x00000894:    1a08        ..      SUBS     r0,r1,r0
        0x00000896:    61a0        .a      STR      r0,[r4,#0x18]
        0x00000898:    6820         h      LDR      r0,[r4,#0]
        0x0000089a:    06c0        ..      LSLS     r0,r0,#27
        0x0000089c:    d402        ..      BMI      0x8a4 ; _printf_int_common + 64
        0x0000089e:    4620         F      MOV      r0,r4
        0x000008a0:    46c0        .F      MOV      r8,r8
        0x000008a2:    46c0        .F      MOV      r8,r8
        0x000008a4:    2600        .&      MOVS     r6,#0
        0x000008a6:    e008        ..      B        0x8ba ; _printf_int_common + 86
        0x000008a8:    9803        ..      LDR      r0,[sp,#0xc]
        0x000008aa:    6862        bh      LDR      r2,[r4,#4]
        0x000008ac:    68a1        .h      LDR      r1,[r4,#8]
        0x000008ae:    5d80        .]      LDRB     r0,[r0,r6]
        0x000008b0:    4790        .G      BLX      r2
        0x000008b2:    6a20         j      LDR      r0,[r4,#0x20]
        0x000008b4:    1c40        @.      ADDS     r0,r0,#1
        0x000008b6:    1c76        v.      ADDS     r6,r6,#1
        0x000008b8:    6220         b      STR      r0,[r4,#0x20]
        0x000008ba:    9804        ..      LDR      r0,[sp,#0x10]
        0x000008bc:    4286        .B      CMP      r6,r0
        0x000008be:    dbf3        ..      BLT      0x8a8 ; _printf_int_common + 68
        0x000008c0:    6820         h      LDR      r0,[r4,#0]
        0x000008c2:    06c0        ..      LSLS     r0,r0,#27
        0x000008c4:    d50a        ..      BPL      0x8dc ; _printf_int_common + 120
        0x000008c6:    4620         F      MOV      r0,r4
        0x000008c8:    46c0        .F      MOV      r8,r8
        0x000008ca:    46c0        .F      MOV      r8,r8
        0x000008cc:    e006        ..      B        0x8dc ; _printf_int_common + 120
        0x000008ce:    6862        bh      LDR      r2,[r4,#4]
        0x000008d0:    68a1        .h      LDR      r1,[r4,#8]
        0x000008d2:    2030        0       MOVS     r0,#0x30
        0x000008d4:    4790        .G      BLX      r2
        0x000008d6:    6a20         j      LDR      r0,[r4,#0x20]
        0x000008d8:    1c40        @.      ADDS     r0,r0,#1
        0x000008da:    6220         b      STR      r0,[r4,#0x20]
        0x000008dc:    4638        8F      MOV      r0,r7
        0x000008de:    1e7f        ..      SUBS     r7,r7,#1
        0x000008e0:    2800        .(      CMP      r0,#0
        0x000008e2:    dcf4        ..      BGT      0x8ce ; _printf_int_common + 106
        0x000008e4:    e007        ..      B        0x8f6 ; _printf_int_common + 146
        0x000008e6:    9800        ..      LDR      r0,[sp,#0]
        0x000008e8:    6862        bh      LDR      r2,[r4,#4]
        0x000008ea:    68a1        .h      LDR      r1,[r4,#8]
        0x000008ec:    5d40        @]      LDRB     r0,[r0,r5]
        0x000008ee:    4790        .G      BLX      r2
        0x000008f0:    6a20         j      LDR      r0,[r4,#0x20]
        0x000008f2:    1c40        @.      ADDS     r0,r0,#1
        0x000008f4:    6220         b      STR      r0,[r4,#0x20]
        0x000008f6:    4628        (F      MOV      r0,r5
        0x000008f8:    1e6d        m.      SUBS     r5,r5,#1
        0x000008fa:    2800        .(      CMP      r0,#0
        0x000008fc:    dcf3        ..      BGT      0x8e6 ; _printf_int_common + 130
        0x000008fe:    4620         F      MOV      r0,r4
        0x00000900:    46c0        .F      MOV      r8,r8
        0x00000902:    46c0        .F      MOV      r8,r8
        0x00000904:    6820         h      LDR      r0,[r4,#0]
        0x00000906:    0600        ..      LSLS     r0,r0,#24
        0x00000908:    d502        ..      BPL      0x910 ; _printf_int_common + 172
        0x0000090a:    2002        .       MOVS     r0,#2
        0x0000090c:    b005        ..      ADD      sp,sp,#0x14
        0x0000090e:    bdf0        ..      POP      {r4-r7,pc}
        0x00000910:    2001        .       MOVS     r0,#1
        0x00000912:    e7fb        ..      B        0x90c ; _printf_int_common + 168
    .text
    _printf_input_char
        0x00000914:    6901        .i      LDR      r1,[r0,#0x10]
        0x00000916:    1c4a        J.      ADDS     r2,r1,#1
        0x00000918:    6102        .a      STR      r2,[r0,#0x10]
        0x0000091a:    7808        .x      LDRB     r0,[r1,#0]
        0x0000091c:    4770        pG      BX       lr
    _printf_char_common
        0x0000091e:    b500        ..      PUSH     {lr}
        0x00000920:    b08f        ..      SUB      sp,sp,#0x3c
        0x00000922:    9102        ..      STR      r1,[sp,#8]
        0x00000924:    2100        .!      MOVS     r1,#0
        0x00000926:    9105        ..      STR      r1,[sp,#0x14]
        0x00000928:    4905        .I      LDR      r1,[pc,#20] ; [0x940] = 0xffffffe5
        0x0000092a:    9301        ..      STR      r3,[sp,#4]
        0x0000092c:    4479        yD      ADD      r1,r1,pc
        0x0000092e:    9103        ..      STR      r1,[sp,#0xc]
        0x00000930:    4611        .F      MOV      r1,r2
        0x00000932:    9004        ..      STR      r0,[sp,#0x10]
        0x00000934:    4668        hF      MOV      r0,sp
        0x00000936:    f7fffc83    ....    BL       __printf ; 0x240
        0x0000093a:    b00f        ..      ADD      sp,sp,#0x3c
        0x0000093c:    bd00        ..      POP      {pc}
    $d
        0x0000093e:    0000        ..      DCW    0
        0x00000940:    ffffffe5    ....    DCD    4294967269
    $t
    .text
    _sputc
        0x00000944:    680a        .h      LDR      r2,[r1,#0]
        0x00000946:    7010        .p      STRB     r0,[r2,#0]
        0x00000948:    1c52        R.      ADDS     r2,r2,#1
        0x0000094a:    600a        .`      STR      r2,[r1,#0]
        0x0000094c:    4770        pG      BX       lr
    .text
    __rt_udiv10
        0x0000094e:    4601        .F      MOV      r1,r0
        0x00000950:    0880        ..      LSRS     r0,r0,#2
        0x00000952:    1a08        ..      SUBS     r0,r1,r0
        0x00000954:    0902        ..      LSRS     r2,r0,#4
        0x00000956:    1810        ..      ADDS     r0,r2,r0
        0x00000958:    0a02        ..      LSRS     r2,r0,#8
        0x0000095a:    1810        ..      ADDS     r0,r2,r0
        0x0000095c:    0c02        ..      LSRS     r2,r0,#16
        0x0000095e:    1810        ..      ADDS     r0,r2,r0
        0x00000960:    08c0        ..      LSRS     r0,r0,#3
        0x00000962:    0082        ..      LSLS     r2,r0,#2
        0x00000964:    1812        ..      ADDS     r2,r2,r0
        0x00000966:    0052        R.      LSLS     r2,r2,#1
        0x00000968:    1a89        ..      SUBS     r1,r1,r2
        0x0000096a:    e001        ..      B        0x970 ; __rt_udiv10 + 34
        0x0000096c:    390a        .9      SUBS     r1,r1,#0xa
        0x0000096e:    1c40        @.      ADDS     r0,r0,#1
        0x00000970:    290a        .)      CMP      r1,#0xa
        0x00000972:    d2fb        ..      BCS      0x96c ; __rt_udiv10 + 30
        0x00000974:    4770        pG      BX       lr
    .text
    __user_setup_stackheap
        0x00000976:    4675        uF      MOV      r5,lr
        0x00000978:    f000f822    ..".    BL       __user_libspace ; 0x9c0
        0x0000097c:    46ae        .F      MOV      lr,r5
        0x0000097e:    0005        ..      MOVS     r5,r0
        0x00000980:    4669        iF      MOV      r1,sp
        0x00000982:    4653        SF      MOV      r3,r10
        0x00000984:    08c0        ..      LSRS     r0,r0,#3
        0x00000986:    00c0        ..      LSLS     r0,r0,#3
        0x00000988:    4685        .F      MOV      sp,r0
        0x0000098a:    b018        ..      ADD      sp,sp,#0x60
        0x0000098c:    b520         .      PUSH     {r5,lr}
        0x0000098e:    f7fffc27    ..'.    BL       __user_initial_stackheap ; 0x1e0
        0x00000992:    bc60        `.      POP      {r5,r6}
        0x00000994:    2700        .'      MOVS     r7,#0
        0x00000996:    0849        I.      LSRS     r1,r1,#1
        0x00000998:    46b6        .F      MOV      lr,r6
        0x0000099a:    2600        .&      MOVS     r6,#0
        0x0000099c:    c5c0        ..      STM      r5!,{r6,r7}
        0x0000099e:    c5c0        ..      STM      r5!,{r6,r7}
        0x000009a0:    c5c0        ..      STM      r5!,{r6,r7}
        0x000009a2:    c5c0        ..      STM      r5!,{r6,r7}
        0x000009a4:    c5c0        ..      STM      r5!,{r6,r7}
        0x000009a6:    c5c0        ..      STM      r5!,{r6,r7}
        0x000009a8:    c5c0        ..      STM      r5!,{r6,r7}
        0x000009aa:    c5c0        ..      STM      r5!,{r6,r7}
        0x000009ac:    3d40        @=      SUBS     r5,r5,#0x40
        0x000009ae:    0049        I.      LSLS     r1,r1,#1
        0x000009b0:    468d        .F      MOV      sp,r1
        0x000009b2:    4770        pG      BX       lr
    .text
    exit
        0x000009b4:    4604        .F      MOV      r4,r0
        0x000009b6:    46c0        .F      MOV      r8,r8
        0x000009b8:    46c0        .F      MOV      r8,r8
        0x000009ba:    4620         F      MOV      r0,r4
        0x000009bc:    f7fffbd7    ....    BL       __rt_exit ; 0x16e
    .text
    __user_libspace
    __user_perproc_libspace
    __user_perthread_libspace
        0x000009c0:    4800        .H      LDR      r0,[pc,#0] ; [0x9c4] = 0x200010e0
        0x000009c2:    4770        pG      BX       lr
    $d
        0x000009c4:    200010e0    ...     DCD    536875232
    $t
    .text
    _sys_exit
        0x000009c8:    4901        .I      LDR      r1,[pc,#4] ; [0x9d0] = 0x20026
        0x000009ca:    2018        .       MOVS     r0,#0x18
        0x000009cc:    beab        ..      BKPT     #0xab
        0x000009ce:    e7fe        ..      B        0x9ce ; _sys_exit + 6
    $d
        0x000009d0:    00020026    &...    DCD    131110
    $t
    .text
    __I$use$semihosting
    __use_no_semihosting_swi
        0x000009d4:    4770        pG      BX       lr
    .text
    __semihosting_library_function
        0x000009d6:    0000        ..      MOVS     r0,r0
    i.DrvGPIO_ClrBit
    DrvGPIO_ClrBit
        0x000009d8:    b510        ..      PUSH     {r4,lr}
        0x000009da:    4603        .F      MOV      r3,r0
        0x000009dc:    2900        .)      CMP      r1,#0
        0x000009de:    db01        ..      BLT      0x9e4 ; DrvGPIO_ClrBit + 12
        0x000009e0:    2910        .)      CMP      r1,#0x10
        0x000009e2:    dd01        ..      BLE      0x9e8 ; DrvGPIO_ClrBit + 16
        0x000009e4:    4805        .H      LDR      r0,[pc,#20] ; [0x9fc] = 0xffff8901
        0x000009e6:    bd10        ..      POP      {r4,pc}
        0x000009e8:    0198        ..      LSLS     r0,r3,#6
        0x000009ea:    4c05        .L      LDR      r4,[pc,#20] ; [0xa00] = 0x50004000
        0x000009ec:    1902        ..      ADDS     r2,r0,r4
        0x000009ee:    6890        .h      LDR      r0,[r2,#8]
        0x000009f0:    2401        .$      MOVS     r4,#1
        0x000009f2:    408c        .@      LSLS     r4,r4,r1
        0x000009f4:    43a0        .C      BICS     r0,r0,r4
        0x000009f6:    6090        .`      STR      r0,[r2,#8]
        0x000009f8:    2000        .       MOVS     r0,#0
        0x000009fa:    e7f4        ..      B        0x9e6 ; DrvGPIO_ClrBit + 14
    $d
        0x000009fc:    ffff8901    ....    DCD    4294936833
        0x00000a00:    50004000    .@.P    DCD    1342193664
    $t
    i.DrvGPIO_GetBit
    DrvGPIO_GetBit
        0x00000a04:    b510        ..      PUSH     {r4,lr}
        0x00000a06:    4602        .F      MOV      r2,r0
        0x00000a08:    2900        .)      CMP      r1,#0
        0x00000a0a:    db01        ..      BLT      0xa10 ; DrvGPIO_GetBit + 12
        0x00000a0c:    2910        .)      CMP      r1,#0x10
        0x00000a0e:    dd01        ..      BLE      0xa14 ; DrvGPIO_GetBit + 16
        0x00000a10:    4804        .H      LDR      r0,[pc,#16] ; [0xa24] = 0xffff8901
        0x00000a12:    bd10        ..      POP      {r4,pc}
        0x00000a14:    4804        .H      LDR      r0,[pc,#16] ; [0xa28] = 0x50004010
        0x00000a16:    0194        ..      LSLS     r4,r2,#6
        0x00000a18:    1903        ..      ADDS     r3,r0,r4
        0x00000a1a:    6818        .h      LDR      r0,[r3,#0]
        0x00000a1c:    40c8        .@      LSRS     r0,r0,r1
        0x00000a1e:    07c0        ..      LSLS     r0,r0,#31
        0x00000a20:    0fc0        ..      LSRS     r0,r0,#31
        0x00000a22:    e7f6        ..      B        0xa12 ; DrvGPIO_GetBit + 14
    $d
        0x00000a24:    ffff8901    ....    DCD    4294936833
        0x00000a28:    50004010    .@.P    DCD    1342193680
    $t
    i.DrvGPIO_Open
    DrvGPIO_Open
        0x00000a2c:    b570        p.      PUSH     {r4-r6,lr}
        0x00000a2e:    4604        .F      MOV      r4,r0
        0x00000a30:    460b        .F      MOV      r3,r1
        0x00000a32:    2b00        .+      CMP      r3,#0
        0x00000a34:    db01        ..      BLT      0xa3a ; DrvGPIO_Open + 14
        0x00000a36:    2b10        .+      CMP      r3,#0x10
        0x00000a38:    dd01        ..      BLE      0xa3e ; DrvGPIO_Open + 18
        0x00000a3a:    4818        .H      LDR      r0,[pc,#96] ; [0xa9c] = 0xffff8901
        0x00000a3c:    bd70        p.      POP      {r4-r6,pc}
        0x00000a3e:    01a0        ..      LSLS     r0,r4,#6
        0x00000a40:    4d17        .M      LDR      r5,[pc,#92] ; [0xaa0] = 0x50004000
        0x00000a42:    1941        A.      ADDS     r1,r0,r5
        0x00000a44:    2a00        .*      CMP      r2,#0
        0x00000a46:    d003        ..      BEQ      0xa50 ; DrvGPIO_Open + 36
        0x00000a48:    2a01        .*      CMP      r2,#1
        0x00000a4a:    d001        ..      BEQ      0xa50 ; DrvGPIO_Open + 36
        0x00000a4c:    2a02        .*      CMP      r2,#2
        0x00000a4e:    d117        ..      BNE      0xa80 ; DrvGPIO_Open + 84
        0x00000a50:    6808        .h      LDR      r0,[r1,#0]
        0x00000a52:    005e        ^.      LSLS     r6,r3,#1
        0x00000a54:    2503        .%      MOVS     r5,#3
        0x00000a56:    40b5        .@      LSLS     r5,r5,r6
        0x00000a58:    43a8        .C      BICS     r0,r0,r5
        0x00000a5a:    6008        .`      STR      r0,[r1,#0]
        0x00000a5c:    2a01        .*      CMP      r2,#1
        0x00000a5e:    d106        ..      BNE      0xa6e ; DrvGPIO_Open + 66
        0x00000a60:    6808        .h      LDR      r0,[r1,#0]
        0x00000a62:    005e        ^.      LSLS     r6,r3,#1
        0x00000a64:    2501        .%      MOVS     r5,#1
        0x00000a66:    40b5        .@      LSLS     r5,r5,r6
        0x00000a68:    4328        (C      ORRS     r0,r0,r5
        0x00000a6a:    6008        .`      STR      r0,[r1,#0]
        0x00000a6c:    e013        ..      B        0xa96 ; DrvGPIO_Open + 106
        0x00000a6e:    2a02        .*      CMP      r2,#2
        0x00000a70:    d111        ..      BNE      0xa96 ; DrvGPIO_Open + 106
        0x00000a72:    6808        .h      LDR      r0,[r1,#0]
        0x00000a74:    005e        ^.      LSLS     r6,r3,#1
        0x00000a76:    2502        .%      MOVS     r5,#2
        0x00000a78:    40b5        .@      LSLS     r5,r5,r6
        0x00000a7a:    4328        (C      ORRS     r0,r0,r5
        0x00000a7c:    6008        .`      STR      r0,[r1,#0]
        0x00000a7e:    e00a        ..      B        0xa96 ; DrvGPIO_Open + 106
        0x00000a80:    2a03        .*      CMP      r2,#3
        0x00000a82:    d106        ..      BNE      0xa92 ; DrvGPIO_Open + 102
        0x00000a84:    6808        .h      LDR      r0,[r1,#0]
        0x00000a86:    005e        ^.      LSLS     r6,r3,#1
        0x00000a88:    2503        .%      MOVS     r5,#3
        0x00000a8a:    40b5        .@      LSLS     r5,r5,r6
        0x00000a8c:    4328        (C      ORRS     r0,r0,r5
        0x00000a8e:    6008        .`      STR      r0,[r1,#0]
        0x00000a90:    e001        ..      B        0xa96 ; DrvGPIO_Open + 106
        0x00000a92:    4802        .H      LDR      r0,[pc,#8] ; [0xa9c] = 0xffff8901
        0x00000a94:    e7d2        ..      B        0xa3c ; DrvGPIO_Open + 16
        0x00000a96:    2000        .       MOVS     r0,#0
        0x00000a98:    e7d0        ..      B        0xa3c ; DrvGPIO_Open + 16
    $d
        0x00000a9a:    0000        ..      DCW    0
        0x00000a9c:    ffff8901    ....    DCD    4294936833
        0x00000aa0:    50004000    .@.P    DCD    1342193664
    $t
    i.DrvGPIO_SetBit
    DrvGPIO_SetBit
        0x00000aa4:    b510        ..      PUSH     {r4,lr}
        0x00000aa6:    4603        .F      MOV      r3,r0
        0x00000aa8:    2900        .)      CMP      r1,#0
        0x00000aaa:    db01        ..      BLT      0xab0 ; DrvGPIO_SetBit + 12
        0x00000aac:    2910        .)      CMP      r1,#0x10
        0x00000aae:    dd01        ..      BLE      0xab4 ; DrvGPIO_SetBit + 16
        0x00000ab0:    4805        .H      LDR      r0,[pc,#20] ; [0xac8] = 0xffff8901
        0x00000ab2:    bd10        ..      POP      {r4,pc}
        0x00000ab4:    0198        ..      LSLS     r0,r3,#6
        0x00000ab6:    4c05        .L      LDR      r4,[pc,#20] ; [0xacc] = 0x50004000
        0x00000ab8:    1902        ..      ADDS     r2,r0,r4
        0x00000aba:    6890        .h      LDR      r0,[r2,#8]
        0x00000abc:    2401        .$      MOVS     r4,#1
        0x00000abe:    408c        .@      LSLS     r4,r4,r1
        0x00000ac0:    4320         C      ORRS     r0,r0,r4
        0x00000ac2:    6090        .`      STR      r0,[r2,#8]
        0x00000ac4:    2000        .       MOVS     r0,#0
        0x00000ac6:    e7f4        ..      B        0xab2 ; DrvGPIO_SetBit + 14
    $d
        0x00000ac8:    ffff8901    ....    DCD    4294936833
        0x00000acc:    50004000    .@.P    DCD    1342193664
    $t
    i.EINT0_IRQHandler
    EINT0_IRQHandler
        0x00000ad0:    b510        ..      PUSH     {r4,lr}
        0x00000ad2:    2001        .       MOVS     r0,#1
        0x00000ad4:    0380        ..      LSLS     r0,r0,#14
        0x00000ad6:    4905        .I      LDR      r1,[pc,#20] ; [0xaec] = 0x50004040
        0x00000ad8:    6208        .b      STR      r0,[r1,#0x20]
        0x00000ada:    4805        .H      LDR      r0,[pc,#20] ; [0xaf0] = 0x200007f4
        0x00000adc:    6800        .h      LDR      r0,[r0,#0]
        0x00000ade:    2800        .(      CMP      r0,#0
        0x00000ae0:    d002        ..      BEQ      0xae8 ; EINT0_IRQHandler + 24
        0x00000ae2:    4803        .H      LDR      r0,[pc,#12] ; [0xaf0] = 0x200007f4
        0x00000ae4:    6800        .h      LDR      r0,[r0,#0]
        0x00000ae6:    4780        .G      BLX      r0
        0x00000ae8:    bd10        ..      POP      {r4,pc}
    $d
        0x00000aea:    0000        ..      DCW    0
        0x00000aec:    50004040    @@.P    DCD    1342193728
        0x00000af0:    200007f4    ...     DCD    536872948
    $t
    i.EINT1_IRQHandler
    EINT1_IRQHandler
        0x00000af4:    b510        ..      PUSH     {r4,lr}
        0x00000af6:    2001        .       MOVS     r0,#1
        0x00000af8:    03c0        ..      LSLS     r0,r0,#15
        0x00000afa:    4905        .I      LDR      r1,[pc,#20] ; [0xb10] = 0x50004040
        0x00000afc:    6208        .b      STR      r0,[r1,#0x20]
        0x00000afe:    4805        .H      LDR      r0,[pc,#20] ; [0xb14] = 0x200007f8
        0x00000b00:    6800        .h      LDR      r0,[r0,#0]
        0x00000b02:    2800        .(      CMP      r0,#0
        0x00000b04:    d002        ..      BEQ      0xb0c ; EINT1_IRQHandler + 24
        0x00000b06:    4803        .H      LDR      r0,[pc,#12] ; [0xb14] = 0x200007f8
        0x00000b08:    6800        .h      LDR      r0,[r0,#0]
        0x00000b0a:    4780        .G      BLX      r0
        0x00000b0c:    bd10        ..      POP      {r4,pc}
    $d
        0x00000b0e:    0000        ..      DCW    0
        0x00000b10:    50004040    @@.P    DCD    1342193728
        0x00000b14:    200007f8    ...     DCD    536872952
    $t
    i.GPAB_IRQHandler
    GPAB_IRQHandler
        0x00000b18:    b570        p.      PUSH     {r4-r6,lr}
        0x00000b1a:    480c        .H      LDR      r0,[pc,#48] ; [0xb4c] = 0x50004000
        0x00000b1c:    6a05        .j      LDR      r5,[r0,#0x20]
        0x00000b1e:    480b        .H      LDR      r0,[pc,#44] ; [0xb4c] = 0x50004000
        0x00000b20:    3040        @0      ADDS     r0,r0,#0x40
        0x00000b22:    6a04        .j      LDR      r4,[r0,#0x20]
        0x00000b24:    2103        .!      MOVS     r1,#3
        0x00000b26:    0389        ..      LSLS     r1,r1,#14
        0x00000b28:    4620         F      MOV      r0,r4
        0x00000b2a:    4388        .C      BICS     r0,r0,r1
        0x00000b2c:    4604        .F      MOV      r4,r0
        0x00000b2e:    4807        .H      LDR      r0,[pc,#28] ; [0xb4c] = 0x50004000
        0x00000b30:    6205        .b      STR      r5,[r0,#0x20]
        0x00000b32:    4806        .H      LDR      r0,[pc,#24] ; [0xb4c] = 0x50004000
        0x00000b34:    3040        @0      ADDS     r0,r0,#0x40
        0x00000b36:    6204        .b      STR      r4,[r0,#0x20]
        0x00000b38:    4805        .H      LDR      r0,[pc,#20] ; [0xb50] = 0x200007ec
        0x00000b3a:    6800        .h      LDR      r0,[r0,#0]
        0x00000b3c:    2800        .(      CMP      r0,#0
        0x00000b3e:    d004        ..      BEQ      0xb4a ; GPAB_IRQHandler + 50
        0x00000b40:    4621        !F      MOV      r1,r4
        0x00000b42:    4628        (F      MOV      r0,r5
        0x00000b44:    4a02        .J      LDR      r2,[pc,#8] ; [0xb50] = 0x200007ec
        0x00000b46:    6812        .h      LDR      r2,[r2,#0]
        0x00000b48:    4790        .G      BLX      r2
        0x00000b4a:    bd70        p.      POP      {r4-r6,pc}
    $d
        0x00000b4c:    50004000    .@.P    DCD    1342193664
        0x00000b50:    200007ec    ...     DCD    536872940
    $t
    i.GPCDE_IRQHandler
    GPCDE_IRQHandler
        0x00000b54:    b570        p.      PUSH     {r4-r6,lr}
        0x00000b56:    480d        .H      LDR      r0,[pc,#52] ; [0xb8c] = 0x50004080
        0x00000b58:    6a04        .j      LDR      r4,[r0,#0x20]
        0x00000b5a:    480c        .H      LDR      r0,[pc,#48] ; [0xb8c] = 0x50004080
        0x00000b5c:    3040        @0      ADDS     r0,r0,#0x40
        0x00000b5e:    6a05        .j      LDR      r5,[r0,#0x20]
        0x00000b60:    480a        .H      LDR      r0,[pc,#40] ; [0xb8c] = 0x50004080
        0x00000b62:    3080        .0      ADDS     r0,r0,#0x80
        0x00000b64:    6a06        .j      LDR      r6,[r0,#0x20]
        0x00000b66:    4809        .H      LDR      r0,[pc,#36] ; [0xb8c] = 0x50004080
        0x00000b68:    6204        .b      STR      r4,[r0,#0x20]
        0x00000b6a:    4808        .H      LDR      r0,[pc,#32] ; [0xb8c] = 0x50004080
        0x00000b6c:    3040        @0      ADDS     r0,r0,#0x40
        0x00000b6e:    6205        .b      STR      r5,[r0,#0x20]
        0x00000b70:    4806        .H      LDR      r0,[pc,#24] ; [0xb8c] = 0x50004080
        0x00000b72:    3080        .0      ADDS     r0,r0,#0x80
        0x00000b74:    6206        .b      STR      r6,[r0,#0x20]
        0x00000b76:    4806        .H      LDR      r0,[pc,#24] ; [0xb90] = 0x200007f0
        0x00000b78:    6800        .h      LDR      r0,[r0,#0]
        0x00000b7a:    2800        .(      CMP      r0,#0
        0x00000b7c:    d005        ..      BEQ      0xb8a ; GPCDE_IRQHandler + 54
        0x00000b7e:    4632        2F      MOV      r2,r6
        0x00000b80:    4629        )F      MOV      r1,r5
        0x00000b82:    4620         F      MOV      r0,r4
        0x00000b84:    4b02        .K      LDR      r3,[pc,#8] ; [0xb90] = 0x200007f0
        0x00000b86:    681b        .h      LDR      r3,[r3,#0]
        0x00000b88:    4798        .G      BLX      r3
        0x00000b8a:    bd70        p.      POP      {r4-r6,pc}
    $d
        0x00000b8c:    50004080    .@.P    DCD    1342193792
        0x00000b90:    200007f0    ...     DCD    536872944
    $t
    i.GetRand
    GetRand
        0x00000b94:    b510        ..      PUSH     {r4,lr}
        0x00000b96:    f7fffaf1    ....    BL       rand ; 0x17c
        0x00000b9a:    4604        .F      MOV      r4,r0
        0x00000b9c:    2106        .!      MOVS     r1,#6
        0x00000b9e:    f7fffbe7    ....    BL       __aeabi_idiv ; 0x370
        0x00000ba2:    1c49        I.      ADDS     r1,r1,#1
        0x00000ba4:    b248        H.      SXTB     r0,r1
        0x00000ba6:    bd10        ..      POP      {r4,pc}
    i.InitData
    InitData
        0x00000ba8:    b510        ..      PUSH     {r4,lr}
        0x00000baa:    2401        .$      MOVS     r4,#1
        0x00000bac:    e005        ..      B        0xbba ; InitData + 18
        0x00000bae:    4621        !F      MOV      r1,r4
        0x00000bb0:    2000        .       MOVS     r0,#0
        0x00000bb2:    f000f92b    ..+.    BL       LoadImg ; 0xe0c
        0x00000bb6:    1c60        `.      ADDS     r0,r4,#1
        0x00000bb8:    b2c4        ..      UXTB     r4,r0
        0x00000bba:    2c06        .,      CMP      r4,#6
        0x00000bbc:    ddf7        ..      BLE      0xbae ; InitData + 6
        0x00000bbe:    bd10        ..      POP      {r4,pc}
    i.Initial_panel
    Initial_panel
        0x00000bc0:    4883        .H      LDR      r0,[pc,#524] ; [0xdd0] = 0x50000200
        0x00000bc2:    6880        .h      LDR      r0,[r0,#8]
        0x00000bc4:    2101        .!      MOVS     r1,#1
        0x00000bc6:    03c9        ..      LSLS     r1,r1,#15
        0x00000bc8:    4388        .C      BICS     r0,r0,r1
        0x00000bca:    1840        @.      ADDS     r0,r0,r1
        0x00000bcc:    4980        .I      LDR      r1,[pc,#512] ; [0xdd0] = 0x50000200
        0x00000bce:    6088        .`      STR      r0,[r1,#8]
        0x00000bd0:    2005        .       MOVS     r0,#5
        0x00000bd2:    0700        ..      LSLS     r0,r0,#28
        0x00000bd4:    68c0        .h      LDR      r0,[r0,#0xc]
        0x00000bd6:    0189        ..      LSLS     r1,r1,#6
        0x00000bd8:    4388        .C      BICS     r0,r0,r1
        0x00000bda:    1840        @.      ADDS     r0,r0,r1
        0x00000bdc:    2105        .!      MOVS     r1,#5
        0x00000bde:    0709        ..      LSLS     r1,r1,#28
        0x00000be0:    60c8        .`      STR      r0,[r1,#0xc]
        0x00000be2:    4608        .F      MOV      r0,r1
        0x00000be4:    68c0        .h      LDR      r0,[r0,#0xc]
        0x00000be6:    2101        .!      MOVS     r1,#1
        0x00000be8:    03c9        ..      LSLS     r1,r1,#15
        0x00000bea:    4388        .C      BICS     r0,r0,r1
        0x00000bec:    2105        .!      MOVS     r1,#5
        0x00000bee:    0709        ..      LSLS     r1,r1,#28
        0x00000bf0:    60c8        .`      STR      r0,[r1,#0xc]
        0x00000bf2:    4608        .F      MOV      r0,r1
        0x00000bf4:    6bc0        .k      LDR      r0,[r0,#0x3c]
        0x00000bf6:    21ff        .!      MOVS     r1,#0xff
        0x00000bf8:    3101        .1      ADDS     r1,#1
        0x00000bfa:    4388        .C      BICS     r0,r0,r1
        0x00000bfc:    1840        @.      ADDS     r0,r0,r1
        0x00000bfe:    2105        .!      MOVS     r1,#5
        0x00000c00:    0709        ..      LSLS     r1,r1,#28
        0x00000c02:    63c8        .c      STR      r0,[r1,#0x3c]
        0x00000c04:    4608        .F      MOV      r0,r1
        0x00000c06:    6bc0        .k      LDR      r0,[r0,#0x3c]
        0x00000c08:    2101        .!      MOVS     r1,#1
        0x00000c0a:    0249        I.      LSLS     r1,r1,#9
        0x00000c0c:    4388        .C      BICS     r0,r0,r1
        0x00000c0e:    1840        @.      ADDS     r0,r0,r1
        0x00000c10:    2105        .!      MOVS     r1,#5
        0x00000c12:    0709        ..      LSLS     r1,r1,#28
        0x00000c14:    63c8        .c      STR      r0,[r1,#0x3c]
        0x00000c16:    4608        .F      MOV      r0,r1
        0x00000c18:    6bc0        .k      LDR      r0,[r0,#0x3c]
        0x00000c1a:    2101        .!      MOVS     r1,#1
        0x00000c1c:    02c9        ..      LSLS     r1,r1,#11
        0x00000c1e:    4388        .C      BICS     r0,r0,r1
        0x00000c20:    1840        @.      ADDS     r0,r0,r1
        0x00000c22:    2105        .!      MOVS     r1,#5
        0x00000c24:    0709        ..      LSLS     r1,r1,#28
        0x00000c26:    63c8        .c      STR      r0,[r1,#0x3c]
        0x00000c28:    486a        jH      LDR      r0,[pc,#424] ; [0xdd4] = 0x200007dc
        0x00000c2a:    68c0        .h      LDR      r0,[r0,#0xc]
        0x00000c2c:    6800        .h      LDR      r0,[r0,#0]
        0x00000c2e:    2101        .!      MOVS     r1,#1
        0x00000c30:    02c9        ..      LSLS     r1,r1,#11
        0x00000c32:    4388        .C      BICS     r0,r0,r1
        0x00000c34:    1840        @.      ADDS     r0,r0,r1
        0x00000c36:    4967        gI      LDR      r1,[pc,#412] ; [0xdd4] = 0x200007dc
        0x00000c38:    68c9        .h      LDR      r1,[r1,#0xc]
        0x00000c3a:    6008        .`      STR      r0,[r1,#0]
        0x00000c3c:    4865        eH      LDR      r0,[pc,#404] ; [0xdd4] = 0x200007dc
        0x00000c3e:    68c0        .h      LDR      r0,[r0,#0xc]
        0x00000c40:    6800        .h      LDR      r0,[r0,#0]
        0x00000c42:    21f8        .!      MOVS     r1,#0xf8
        0x00000c44:    4388        .C      BICS     r0,r0,r1
        0x00000c46:    3048        H0      ADDS     r0,r0,#0x48
        0x00000c48:    4962        bI      LDR      r1,[pc,#392] ; [0xdd4] = 0x200007dc
        0x00000c4a:    68c9        .h      LDR      r1,[r1,#0xc]
        0x00000c4c:    6008        .`      STR      r0,[r1,#0]
        0x00000c4e:    4861        aH      LDR      r0,[pc,#388] ; [0xdd4] = 0x200007dc
        0x00000c50:    68c0        .h      LDR      r0,[r0,#0xc]
        0x00000c52:    6800        .h      LDR      r0,[r0,#0]
        0x00000c54:    2104        .!      MOVS     r1,#4
        0x00000c56:    4388        .C      BICS     r0,r0,r1
        0x00000c58:    1d00        ..      ADDS     r0,r0,#4
        0x00000c5a:    495e        ^I      LDR      r1,[pc,#376] ; [0xdd4] = 0x200007dc
        0x00000c5c:    68c9        .h      LDR      r1,[r1,#0xc]
        0x00000c5e:    6008        .`      STR      r0,[r1,#0]
        0x00000c60:    485c        \H      LDR      r0,[pc,#368] ; [0xdd4] = 0x200007dc
        0x00000c62:    68c0        .h      LDR      r0,[r0,#0xc]
        0x00000c64:    6840        @h      LDR      r0,[r0,#4]
        0x00000c66:    0c00        ..      LSRS     r0,r0,#16
        0x00000c68:    0400        ..      LSLS     r0,r0,#16
        0x00000c6a:    1cc0        ..      ADDS     r0,r0,#3
        0x00000c6c:    4959        YI      LDR      r1,[pc,#356] ; [0xdd4] = 0x200007dc
        0x00000c6e:    68c9        .h      LDR      r1,[r1,#0xc]
        0x00000c70:    6048        H`      STR      r0,[r1,#4]
        0x00000c72:    4858        XH      LDR      r0,[pc,#352] ; [0xdd4] = 0x200007dc
        0x00000c74:    68c0        .h      LDR      r0,[r0,#0xc]
        0x00000c76:    6880        .h      LDR      r0,[r0,#8]
        0x00000c78:    0880        ..      LSRS     r0,r0,#2
        0x00000c7a:    0080        ..      LSLS     r0,r0,#2
        0x00000c7c:    1c40        @.      ADDS     r0,r0,#1
        0x00000c7e:    4955        UI      LDR      r1,[pc,#340] ; [0xdd4] = 0x200007dc
        0x00000c80:    68c9        .h      LDR      r1,[r1,#0xc]
        0x00000c82:    6088        .`      STR      r0,[r1,#8]
        0x00000c84:    20eb        .       MOVS     r0,#0xeb
        0x00000c86:    4953        SI      LDR      r1,[pc,#332] ; [0xdd4] = 0x200007dc
        0x00000c88:    68c9        .h      LDR      r1,[r1,#0xc]
        0x00000c8a:    6208        .b      STR      r0,[r1,#0x20]
        0x00000c8c:    4851        QH      LDR      r0,[pc,#324] ; [0xdd4] = 0x200007dc
        0x00000c8e:    68c0        .h      LDR      r0,[r0,#0xc]
        0x00000c90:    6800        .h      LDR      r0,[r0,#0]
        0x00000c92:    0840        @.      LSRS     r0,r0,#1
        0x00000c94:    0040        @.      LSLS     r0,r0,#1
        0x00000c96:    1c40        @.      ADDS     r0,r0,#1
        0x00000c98:    494e        NI      LDR      r1,[pc,#312] ; [0xdd4] = 0x200007dc
        0x00000c9a:    68c9        .h      LDR      r1,[r1,#0xc]
        0x00000c9c:    6008        .`      STR      r0,[r1,#0]
        0x00000c9e:    bf00        ..      NOP      
        0x00000ca0:    484c        LH      LDR      r0,[pc,#304] ; [0xdd4] = 0x200007dc
        0x00000ca2:    68c0        .h      LDR      r0,[r0,#0xc]
        0x00000ca4:    6800        .h      LDR      r0,[r0,#0]
        0x00000ca6:    07c0        ..      LSLS     r0,r0,#31
        0x00000ca8:    0fc0        ..      LSRS     r0,r0,#31
        0x00000caa:    2801        .(      CMP      r0,#1
        0x00000cac:    d0f8        ..      BEQ      0xca0 ; Initial_panel + 224
        0x00000cae:    4849        IH      LDR      r0,[pc,#292] ; [0xdd4] = 0x200007dc
        0x00000cb0:    68c0        .h      LDR      r0,[r0,#0xc]
        0x00000cb2:    6880        .h      LDR      r0,[r0,#8]
        0x00000cb4:    0880        ..      LSRS     r0,r0,#2
        0x00000cb6:    0080        ..      LSLS     r0,r0,#2
        0x00000cb8:    4946        FI      LDR      r1,[pc,#280] ; [0xdd4] = 0x200007dc
        0x00000cba:    68c9        .h      LDR      r1,[r1,#0xc]
        0x00000cbc:    6088        .`      STR      r0,[r1,#8]
        0x00000cbe:    4845        EH      LDR      r0,[pc,#276] ; [0xdd4] = 0x200007dc
        0x00000cc0:    68c0        .h      LDR      r0,[r0,#0xc]
        0x00000cc2:    6880        .h      LDR      r0,[r0,#8]
        0x00000cc4:    0880        ..      LSRS     r0,r0,#2
        0x00000cc6:    0080        ..      LSLS     r0,r0,#2
        0x00000cc8:    1c40        @.      ADDS     r0,r0,#1
        0x00000cca:    4942        BI      LDR      r1,[pc,#264] ; [0xdd4] = 0x200007dc
        0x00000ccc:    68c9        .h      LDR      r1,[r1,#0xc]
        0x00000cce:    6088        .`      STR      r0,[r1,#8]
        0x00000cd0:    2081        .       MOVS     r0,#0x81
        0x00000cd2:    4940        @I      LDR      r1,[pc,#256] ; [0xdd4] = 0x200007dc
        0x00000cd4:    68c9        .h      LDR      r1,[r1,#0xc]
        0x00000cd6:    6208        .b      STR      r0,[r1,#0x20]
        0x00000cd8:    483e        >H      LDR      r0,[pc,#248] ; [0xdd4] = 0x200007dc
        0x00000cda:    68c0        .h      LDR      r0,[r0,#0xc]
        0x00000cdc:    6800        .h      LDR      r0,[r0,#0]
        0x00000cde:    0840        @.      LSRS     r0,r0,#1
        0x00000ce0:    0040        @.      LSLS     r0,r0,#1
        0x00000ce2:    1c40        @.      ADDS     r0,r0,#1
        0x00000ce4:    493b        ;I      LDR      r1,[pc,#236] ; [0xdd4] = 0x200007dc
        0x00000ce6:    68c9        .h      LDR      r1,[r1,#0xc]
        0x00000ce8:    6008        .`      STR      r0,[r1,#0]
        0x00000cea:    bf00        ..      NOP      
        0x00000cec:    4839        9H      LDR      r0,[pc,#228] ; [0xdd4] = 0x200007dc
        0x00000cee:    68c0        .h      LDR      r0,[r0,#0xc]
        0x00000cf0:    6800        .h      LDR      r0,[r0,#0]
        0x00000cf2:    07c0        ..      LSLS     r0,r0,#31
        0x00000cf4:    0fc0        ..      LSRS     r0,r0,#31
        0x00000cf6:    2801        .(      CMP      r0,#1
        0x00000cf8:    d0f8        ..      BEQ      0xcec ; Initial_panel + 300
        0x00000cfa:    20a0        .       MOVS     r0,#0xa0
        0x00000cfc:    4935        5I      LDR      r1,[pc,#212] ; [0xdd4] = 0x200007dc
        0x00000cfe:    68c9        .h      LDR      r1,[r1,#0xc]
        0x00000d00:    6208        .b      STR      r0,[r1,#0x20]
        0x00000d02:    4834        4H      LDR      r0,[pc,#208] ; [0xdd4] = 0x200007dc
        0x00000d04:    68c0        .h      LDR      r0,[r0,#0xc]
        0x00000d06:    6800        .h      LDR      r0,[r0,#0]
        0x00000d08:    0840        @.      LSRS     r0,r0,#1
        0x00000d0a:    0040        @.      LSLS     r0,r0,#1
        0x00000d0c:    1c40        @.      ADDS     r0,r0,#1
        0x00000d0e:    4931        1I      LDR      r1,[pc,#196] ; [0xdd4] = 0x200007dc
        0x00000d10:    68c9        .h      LDR      r1,[r1,#0xc]
        0x00000d12:    6008        .`      STR      r0,[r1,#0]
        0x00000d14:    bf00        ..      NOP      
        0x00000d16:    482f        /H      LDR      r0,[pc,#188] ; [0xdd4] = 0x200007dc
        0x00000d18:    68c0        .h      LDR      r0,[r0,#0xc]
        0x00000d1a:    6800        .h      LDR      r0,[r0,#0]
        0x00000d1c:    07c0        ..      LSLS     r0,r0,#31
        0x00000d1e:    0fc0        ..      LSRS     r0,r0,#31
        0x00000d20:    2801        .(      CMP      r0,#1
        0x00000d22:    d0f8        ..      BEQ      0xd16 ; Initial_panel + 342
        0x00000d24:    482b        +H      LDR      r0,[pc,#172] ; [0xdd4] = 0x200007dc
        0x00000d26:    68c0        .h      LDR      r0,[r0,#0xc]
        0x00000d28:    6880        .h      LDR      r0,[r0,#8]
        0x00000d2a:    0880        ..      LSRS     r0,r0,#2
        0x00000d2c:    0080        ..      LSLS     r0,r0,#2
        0x00000d2e:    4929        )I      LDR      r1,[pc,#164] ; [0xdd4] = 0x200007dc
        0x00000d30:    68c9        .h      LDR      r1,[r1,#0xc]
        0x00000d32:    6088        .`      STR      r0,[r1,#8]
        0x00000d34:    4827        'H      LDR      r0,[pc,#156] ; [0xdd4] = 0x200007dc
        0x00000d36:    68c0        .h      LDR      r0,[r0,#0xc]
        0x00000d38:    6880        .h      LDR      r0,[r0,#8]
        0x00000d3a:    0880        ..      LSRS     r0,r0,#2
        0x00000d3c:    0080        ..      LSLS     r0,r0,#2
        0x00000d3e:    1c40        @.      ADDS     r0,r0,#1
        0x00000d40:    4924        $I      LDR      r1,[pc,#144] ; [0xdd4] = 0x200007dc
        0x00000d42:    68c9        .h      LDR      r1,[r1,#0xc]
        0x00000d44:    6088        .`      STR      r0,[r1,#8]
        0x00000d46:    20c0        .       MOVS     r0,#0xc0
        0x00000d48:    4922        "I      LDR      r1,[pc,#136] ; [0xdd4] = 0x200007dc
        0x00000d4a:    68c9        .h      LDR      r1,[r1,#0xc]
        0x00000d4c:    6208        .b      STR      r0,[r1,#0x20]
        0x00000d4e:    4821        !H      LDR      r0,[pc,#132] ; [0xdd4] = 0x200007dc
        0x00000d50:    68c0        .h      LDR      r0,[r0,#0xc]
        0x00000d52:    6800        .h      LDR      r0,[r0,#0]
        0x00000d54:    0840        @.      LSRS     r0,r0,#1
        0x00000d56:    0040        @.      LSLS     r0,r0,#1
        0x00000d58:    1c40        @.      ADDS     r0,r0,#1
        0x00000d5a:    491e        .I      LDR      r1,[pc,#120] ; [0xdd4] = 0x200007dc
        0x00000d5c:    68c9        .h      LDR      r1,[r1,#0xc]
        0x00000d5e:    6008        .`      STR      r0,[r1,#0]
        0x00000d60:    bf00        ..      NOP      
        0x00000d62:    481c        .H      LDR      r0,[pc,#112] ; [0xdd4] = 0x200007dc
        0x00000d64:    68c0        .h      LDR      r0,[r0,#0xc]
        0x00000d66:    6800        .h      LDR      r0,[r0,#0]
        0x00000d68:    07c0        ..      LSLS     r0,r0,#31
        0x00000d6a:    0fc0        ..      LSRS     r0,r0,#31
        0x00000d6c:    2801        .(      CMP      r0,#1
        0x00000d6e:    d0f8        ..      BEQ      0xd62 ; Initial_panel + 418
        0x00000d70:    4818        .H      LDR      r0,[pc,#96] ; [0xdd4] = 0x200007dc
        0x00000d72:    68c0        .h      LDR      r0,[r0,#0xc]
        0x00000d74:    6880        .h      LDR      r0,[r0,#8]
        0x00000d76:    0880        ..      LSRS     r0,r0,#2
        0x00000d78:    0080        ..      LSLS     r0,r0,#2
        0x00000d7a:    4916        .I      LDR      r1,[pc,#88] ; [0xdd4] = 0x200007dc
        0x00000d7c:    68c9        .h      LDR      r1,[r1,#0xc]
        0x00000d7e:    6088        .`      STR      r0,[r1,#8]
        0x00000d80:    4814        .H      LDR      r0,[pc,#80] ; [0xdd4] = 0x200007dc
        0x00000d82:    68c0        .h      LDR      r0,[r0,#0xc]
        0x00000d84:    6880        .h      LDR      r0,[r0,#8]
        0x00000d86:    0880        ..      LSRS     r0,r0,#2
        0x00000d88:    0080        ..      LSLS     r0,r0,#2
        0x00000d8a:    1c40        @.      ADDS     r0,r0,#1
        0x00000d8c:    4911        .I      LDR      r1,[pc,#68] ; [0xdd4] = 0x200007dc
        0x00000d8e:    68c9        .h      LDR      r1,[r1,#0xc]
        0x00000d90:    6088        .`      STR      r0,[r1,#8]
        0x00000d92:    20af        .       MOVS     r0,#0xaf
        0x00000d94:    490f        .I      LDR      r1,[pc,#60] ; [0xdd4] = 0x200007dc
        0x00000d96:    68c9        .h      LDR      r1,[r1,#0xc]
        0x00000d98:    6208        .b      STR      r0,[r1,#0x20]
        0x00000d9a:    480e        .H      LDR      r0,[pc,#56] ; [0xdd4] = 0x200007dc
        0x00000d9c:    68c0        .h      LDR      r0,[r0,#0xc]
        0x00000d9e:    6800        .h      LDR      r0,[r0,#0]
        0x00000da0:    0840        @.      LSRS     r0,r0,#1
        0x00000da2:    0040        @.      LSLS     r0,r0,#1
        0x00000da4:    1c40        @.      ADDS     r0,r0,#1
        0x00000da6:    490b        .I      LDR      r1,[pc,#44] ; [0xdd4] = 0x200007dc
        0x00000da8:    68c9        .h      LDR      r1,[r1,#0xc]
        0x00000daa:    6008        .`      STR      r0,[r1,#0]
        0x00000dac:    bf00        ..      NOP      
        0x00000dae:    4809        .H      LDR      r0,[pc,#36] ; [0xdd4] = 0x200007dc
        0x00000db0:    68c0        .h      LDR      r0,[r0,#0xc]
        0x00000db2:    6800        .h      LDR      r0,[r0,#0]
        0x00000db4:    07c0        ..      LSLS     r0,r0,#31
        0x00000db6:    0fc0        ..      LSRS     r0,r0,#31
        0x00000db8:    2801        .(      CMP      r0,#1
        0x00000dba:    d0f8        ..      BEQ      0xdae ; Initial_panel + 494
        0x00000dbc:    4805        .H      LDR      r0,[pc,#20] ; [0xdd4] = 0x200007dc
        0x00000dbe:    68c0        .h      LDR      r0,[r0,#0xc]
        0x00000dc0:    6880        .h      LDR      r0,[r0,#8]
        0x00000dc2:    0880        ..      LSRS     r0,r0,#2
        0x00000dc4:    0080        ..      LSLS     r0,r0,#2
        0x00000dc6:    4903        .I      LDR      r1,[pc,#12] ; [0xdd4] = 0x200007dc
        0x00000dc8:    68c9        .h      LDR      r1,[r1,#0xc]
        0x00000dca:    6088        .`      STR      r0,[r1,#8]
        0x00000dcc:    4770        pG      BX       lr
    $d
        0x00000dce:    0000        ..      DCW    0
        0x00000dd0:    50000200    ...P    DCD    1342177792
        0x00000dd4:    200007dc    ...     DCD    536872924
    $t
    i.LoadBuf
    LoadBuf
        0x00000dd8:    b510        ..      PUSH     {r4,lr}
        0x00000dda:    2000        .       MOVS     r0,#0
        0x00000ddc:    e00f        ..      B        0xdfe ; LoadBuf + 38
        0x00000dde:    2100        .!      MOVS     r1,#0
        0x00000de0:    e009        ..      B        0xdf6 ; LoadBuf + 30
        0x00000de2:    01ca        ..      LSLS     r2,r1,#7
        0x00000de4:    1812        ..      ADDS     r2,r2,r0
        0x00000de6:    4b07        .K      LDR      r3,[pc,#28] ; [0xe04] = 0x200007fc
        0x00000de8:    5c9a        .\      LDRB     r2,[r3,r2]
        0x00000dea:    00c3        ..      LSLS     r3,r0,#3
        0x00000dec:    185b        [.      ADDS     r3,r3,r1
        0x00000dee:    4c06        .L      LDR      r4,[pc,#24] ; [0xe08] = 0x20000bfc
        0x00000df0:    54e2        .T      STRB     r2,[r4,r3]
        0x00000df2:    1c4a        J.      ADDS     r2,r1,#1
        0x00000df4:    b2d1        ..      UXTB     r1,r2
        0x00000df6:    2908        .)      CMP      r1,#8
        0x00000df8:    dbf3        ..      BLT      0xde2 ; LoadBuf + 10
        0x00000dfa:    1c42        B.      ADDS     r2,r0,#1
        0x00000dfc:    b2d0        ..      UXTB     r0,r2
        0x00000dfe:    2880        .(      CMP      r0,#0x80
        0x00000e00:    dbed        ..      BLT      0xdde ; LoadBuf + 6
        0x00000e02:    bd10        ..      POP      {r4,pc}
    $d
        0x00000e04:    200007fc    ...     DCD    536872956
        0x00000e08:    20000bfc    ...     DCD    536873980
    $t
    i.LoadImg
    LoadImg
        0x00000e0c:    b5f3        ..      PUSH     {r0,r1,r4-r7,lr}
        0x00000e0e:    b081        ..      SUB      sp,sp,#4
        0x00000e10:    460c        .F      MOV      r4,r1
        0x00000e12:    9801        ..      LDR      r0,[sp,#4]
        0x00000e14:    2800        .(      CMP      r0,#0
        0x00000e16:    d004        ..      BEQ      0xe22 ; LoadImg + 22
        0x00000e18:    2801        .(      CMP      r0,#1
        0x00000e1a:    d02d        -.      BEQ      0xe78 ; LoadImg + 108
        0x00000e1c:    2802        .(      CMP      r0,#2
        0x00000e1e:    d17d        }.      BNE      0xf1c ; LoadImg + 272
        0x00000e20:    e055        U.      B        0xece ; LoadImg + 194
        0x00000e22:    2600        .&      MOVS     r6,#0
        0x00000e24:    e025        %.      B        0xe72 ; LoadImg + 102
        0x00000e26:    2700        .'      MOVS     r7,#0
        0x00000e28:    e01f        ..      B        0xe6a ; LoadImg + 94
        0x00000e2a:    1e60        `.      SUBS     r0,r4,#1
        0x00000e2c:    2103        .!      MOVS     r1,#3
        0x00000e2e:    f7fffa9f    ....    BL       __aeabi_idiv ; 0x370
        0x00000e32:    2028        (       MOVS     r0,#0x28
        0x00000e34:    4341        AC      MULS     r1,r0,r1
        0x00000e36:    17e0        ..      ASRS     r0,r4,#31
        0x00000e38:    0f80        ..      LSRS     r0,r0,#30
        0x00000e3a:    1900        ..      ADDS     r0,r0,r4
        0x00000e3c:    1080        ..      ASRS     r0,r0,#2
        0x00000e3e:    0240        @.      LSLS     r0,r0,#9
        0x00000e40:    01f2        ..      LSLS     r2,r6,#7
        0x00000e42:    1880        ..      ADDS     r0,r0,r2
        0x00000e44:    180d        ..      ADDS     r5,r1,r0
        0x00000e46:    1e60        `.      SUBS     r0,r4,#1
        0x00000e48:    2103        .!      MOVS     r1,#3
        0x00000e4a:    9400        ..      STR      r4,[sp,#0]
        0x00000e4c:    f7fffa90    ....    BL       __aeabi_idiv ; 0x370
        0x00000e50:    1c49        I.      ADDS     r1,r1,#1
        0x00000e52:    0048        H.      LSLS     r0,r1,#1
        0x00000e54:    1828        (.      ADDS     r0,r5,r0
        0x00000e56:    19c1        ..      ADDS     r1,r0,r7
        0x00000e58:    4a35        5J      LDR      r2,[pc,#212] ; [0xf30] = 0x200007fc
        0x00000e5a:    2028        (       MOVS     r0,#0x28
        0x00000e5c:    4370        pC      MULS     r0,r6,r0
        0x00000e5e:    19c0        ..      ADDS     r0,r0,r7
        0x00000e60:    4b34        4K      LDR      r3,[pc,#208] ; [0xf34] = 0x20000140
        0x00000e62:    5c18        .\      LDRB     r0,[r3,r0]
        0x00000e64:    5450        PT      STRB     r0,[r2,r1]
        0x00000e66:    1c78        x.      ADDS     r0,r7,#1
        0x00000e68:    b2c7        ..      UXTB     r7,r0
        0x00000e6a:    2f28        (/      CMP      r7,#0x28
        0x00000e6c:    dbdd        ..      BLT      0xe2a ; LoadImg + 30
        0x00000e6e:    1c70        p.      ADDS     r0,r6,#1
        0x00000e70:    b2c6        ..      UXTB     r6,r0
        0x00000e72:    2e04        ..      CMP      r6,#4
        0x00000e74:    dbd7        ..      BLT      0xe26 ; LoadImg + 26
        0x00000e76:    e058        X.      B        0xf2a ; LoadImg + 286
        0x00000e78:    2600        .&      MOVS     r6,#0
        0x00000e7a:    e025        %.      B        0xec8 ; LoadImg + 188
        0x00000e7c:    2700        .'      MOVS     r7,#0
        0x00000e7e:    e01f        ..      B        0xec0 ; LoadImg + 180
        0x00000e80:    1e60        `.      SUBS     r0,r4,#1
        0x00000e82:    2103        .!      MOVS     r1,#3
        0x00000e84:    f7fffa74    ..t.    BL       __aeabi_idiv ; 0x370
        0x00000e88:    2028        (       MOVS     r0,#0x28
        0x00000e8a:    4341        AC      MULS     r1,r0,r1
        0x00000e8c:    17e0        ..      ASRS     r0,r4,#31
        0x00000e8e:    0f80        ..      LSRS     r0,r0,#30
        0x00000e90:    1900        ..      ADDS     r0,r0,r4
        0x00000e92:    1080        ..      ASRS     r0,r0,#2
        0x00000e94:    0240        @.      LSLS     r0,r0,#9
        0x00000e96:    01f2        ..      LSLS     r2,r6,#7
        0x00000e98:    1880        ..      ADDS     r0,r0,r2
        0x00000e9a:    180d        ..      ADDS     r5,r1,r0
        0x00000e9c:    1e60        `.      SUBS     r0,r4,#1
        0x00000e9e:    2103        .!      MOVS     r1,#3
        0x00000ea0:    9400        ..      STR      r4,[sp,#0]
        0x00000ea2:    f7fffa65    ..e.    BL       __aeabi_idiv ; 0x370
        0x00000ea6:    1c49        I.      ADDS     r1,r1,#1
        0x00000ea8:    0048        H.      LSLS     r0,r1,#1
        0x00000eaa:    1828        (.      ADDS     r0,r5,r0
        0x00000eac:    19c1        ..      ADDS     r1,r0,r7
        0x00000eae:    4a20         J      LDR      r2,[pc,#128] ; [0xf30] = 0x200007fc
        0x00000eb0:    2028        (       MOVS     r0,#0x28
        0x00000eb2:    4370        pC      MULS     r0,r6,r0
        0x00000eb4:    19c0        ..      ADDS     r0,r0,r7
        0x00000eb6:    4b20         K      LDR      r3,[pc,#128] ; [0xf38] = 0x20000000
        0x00000eb8:    5c18        .\      LDRB     r0,[r3,r0]
        0x00000eba:    5450        PT      STRB     r0,[r2,r1]
        0x00000ebc:    1c78        x.      ADDS     r0,r7,#1
        0x00000ebe:    b2c7        ..      UXTB     r7,r0
        0x00000ec0:    2f28        (/      CMP      r7,#0x28
        0x00000ec2:    dbdd        ..      BLT      0xe80 ; LoadImg + 116
        0x00000ec4:    1c70        p.      ADDS     r0,r6,#1
        0x00000ec6:    b2c6        ..      UXTB     r6,r0
        0x00000ec8:    2e04        ..      CMP      r6,#4
        0x00000eca:    dbd7        ..      BLT      0xe7c ; LoadImg + 112
        0x00000ecc:    e02d        -.      B        0xf2a ; LoadImg + 286
        0x00000ece:    2600        .&      MOVS     r6,#0
        0x00000ed0:    e027        '.      B        0xf22 ; LoadImg + 278
        0x00000ed2:    2700        .'      MOVS     r7,#0
        0x00000ed4:    e01f        ..      B        0xf16 ; LoadImg + 266
        0x00000ed6:    1e60        `.      SUBS     r0,r4,#1
        0x00000ed8:    2103        .!      MOVS     r1,#3
        0x00000eda:    f7fffa49    ..I.    BL       __aeabi_idiv ; 0x370
        0x00000ede:    2028        (       MOVS     r0,#0x28
        0x00000ee0:    4341        AC      MULS     r1,r0,r1
        0x00000ee2:    17e0        ..      ASRS     r0,r4,#31
        0x00000ee4:    0f80        ..      LSRS     r0,r0,#30
        0x00000ee6:    1900        ..      ADDS     r0,r0,r4
        0x00000ee8:    1080        ..      ASRS     r0,r0,#2
        0x00000eea:    0240        @.      LSLS     r0,r0,#9
        0x00000eec:    01f2        ..      LSLS     r2,r6,#7
        0x00000eee:    1880        ..      ADDS     r0,r0,r2
        0x00000ef0:    180d        ..      ADDS     r5,r1,r0
        0x00000ef2:    1e60        `.      SUBS     r0,r4,#1
        0x00000ef4:    2103        .!      MOVS     r1,#3
        0x00000ef6:    9400        ..      STR      r4,[sp,#0]
        0x00000ef8:    f7fffa3a    ..:.    BL       __aeabi_idiv ; 0x370
        0x00000efc:    1c49        I.      ADDS     r1,r1,#1
        0x00000efe:    0048        H.      LSLS     r0,r1,#1
        0x00000f00:    1828        (.      ADDS     r0,r5,r0
        0x00000f02:    19c1        ..      ADDS     r1,r0,r7
        0x00000f04:    4a0a        .J      LDR      r2,[pc,#40] ; [0xf30] = 0x200007fc
        0x00000f06:    2028        (       MOVS     r0,#0x28
        0x00000f08:    4370        pC      MULS     r0,r6,r0
        0x00000f0a:    19c0        ..      ADDS     r0,r0,r7
        0x00000f0c:    4b0b        .K      LDR      r3,[pc,#44] ; [0xf3c] = 0x200000a0
        0x00000f0e:    5c18        .\      LDRB     r0,[r3,r0]
        0x00000f10:    5450        PT      STRB     r0,[r2,r1]
        0x00000f12:    1c78        x.      ADDS     r0,r7,#1
        0x00000f14:    b2c7        ..      UXTB     r7,r0
        0x00000f16:    2f28        (/      CMP      r7,#0x28
        0x00000f18:    dbdd        ..      BLT      0xed6 ; LoadImg + 202
        0x00000f1a:    e000        ..      B        0xf1e ; LoadImg + 274
        0x00000f1c:    e004        ..      B        0xf28 ; LoadImg + 284
        0x00000f1e:    1c70        p.      ADDS     r0,r6,#1
        0x00000f20:    b2c6        ..      UXTB     r6,r0
        0x00000f22:    2e04        ..      CMP      r6,#4
        0x00000f24:    dbd5        ..      BLT      0xed2 ; LoadImg + 198
        0x00000f26:    e000        ..      B        0xf2a ; LoadImg + 286
        0x00000f28:    bf00        ..      NOP      
        0x00000f2a:    bf00        ..      NOP      
        0x00000f2c:    bdfe        ..      POP      {r1-r7,pc}
    $d
        0x00000f2e:    0000        ..      DCW    0
        0x00000f30:    200007fc    ...     DCD    536872956
        0x00000f34:    20000140    @..     DCD    536871232
        0x00000f38:    20000000    ...     DCD    536870912
        0x00000f3c:    200000a0    ...     DCD    536871072
    $t
    i.LoadIndex
    LoadIndex
        0x00000f40:    b510        ..      PUSH     {r4,lr}
        0x00000f42:    f7fffe3d    ..=.    BL       Initial_panel ; 0xbc0
        0x00000f46:    f000f99f    ....    BL       clr_all_panel ; 0x1288
        0x00000f4a:    a104        ..      ADR      r1,{pc}+0x12 ; 0xf5c
        0x00000f4c:    2001        .       MOVS     r0,#1
        0x00000f4e:    f000fad5    ....    BL       print_lcd ; 0x14fc
        0x00000f52:    a106        ..      ADR      r1,{pc}+0x1a ; 0xf6c
        0x00000f54:    2002        .       MOVS     r0,#2
        0x00000f56:    f000fad1    ....    BL       print_lcd ; 0x14fc
        0x00000f5a:    bd10        ..      POP      {r4,pc}
    $d
        0x00000f5c:    63616857    Whac    DCD    1667328087
        0x00000f60:    2d412d6b    k-A-    DCD    759246187
        0x00000f64:    656c6f4d    Mole    DCD    1701605197
        0x00000f68:    00000021    !...    DCD    33
        0x00000f6c:    72617453    Star    DCD    1918989395
        0x00000f70:    2d2d2074    t --    DCD    757932148
        0x00000f74:    203e2d2d    -->     DCD    540945709
        0x00000f78:    00000031    1...    DCD    49
    $t
    i.Loadres
    Loadres
        0x00000f7c:    b51f        ..      PUSH     {r0-r4,lr}
        0x00000f7e:    4604        .F      MOV      r4,r0
        0x00000f80:    4b0f        .K      LDR      r3,[pc,#60] ; [0xfc0] = 0x1654
        0x00000f82:    cb0f        ..      LDM      r3,{r0-r3}
        0x00000f84:    9303        ..      STR      r3,[sp,#0xc]
        0x00000f86:    466b        kF      MOV      r3,sp
        0x00000f88:    c307        ..      STM      r3!,{r0-r2}
        0x00000f8a:    f7fffe19    ....    BL       Initial_panel ; 0xbc0
        0x00000f8e:    f000f97b    ..{.    BL       clr_all_panel ; 0x1288
        0x00000f92:    a10c        ..      ADR      r1,{pc}+0x32 ; 0xfc4
        0x00000f94:    2000        .       MOVS     r0,#0
        0x00000f96:    f000fab1    ....    BL       print_lcd ; 0x14fc
        0x00000f9a:    4622        "F      MOV      r2,r4
        0x00000f9c:    a10c        ..      ADR      r1,{pc}+0x34 ; 0xfd0
        0x00000f9e:    a802        ..      ADD      r0,sp,#8
        0x00000fa0:    3003        .0      ADDS     r0,#3
        0x00000fa2:    f7fff939    ..9.    BL       __2sprintf ; 0x218
        0x00000fa6:    4669        iF      MOV      r1,sp
        0x00000fa8:    2001        .       MOVS     r0,#1
        0x00000faa:    f000faa7    ....    BL       print_lcd ; 0x14fc
        0x00000fae:    a109        ..      ADR      r1,{pc}+0x26 ; 0xfd4
        0x00000fb0:    2002        .       MOVS     r0,#2
        0x00000fb2:    f000faa3    ....    BL       print_lcd ; 0x14fc
        0x00000fb6:    a10c        ..      ADR      r1,{pc}+0x32 ; 0xfe8
        0x00000fb8:    2003        .       MOVS     r0,#3
        0x00000fba:    f000fa9f    ....    BL       print_lcd ; 0x14fc
        0x00000fbe:    bd1f        ..      POP      {r0-r4,pc}
    $d
        0x00000fc0:    00001654    T...    DCD    5716
        0x00000fc4:    656d6147    Game    DCD    1701667143
        0x00000fc8:    65764f20     Ove    DCD    1702252320
        0x00000fcc:    00000072    r...    DCD    114
        0x00000fd0:    00006425    %d..    DCD    25637
        0x00000fd4:    746e6f43    Cont    DCD    1953394499
        0x00000fd8:    65756e69    inue    DCD    1702194793
        0x00000fdc:    2d2d203f    ? --    DCD    757932095
        0x00000fe0:    31203e2d    -> 1    DCD    824196653
        0x00000fe4:    00000000    ....    DCD    0
        0x00000fe8:    6b636142    Back    DCD    1801675074
        0x00000fec:    6f486f54    ToHo    DCD    1867018068
        0x00000ff0:    2d20656d    me -    DCD    757097837
        0x00000ff4:    32203e2d    -> 2    DCD    840973869
        0x00000ff8:    00000000    ....    DCD    0
    $t
    i.OpenKeyPad
    OpenKeyPad
        0x00000ffc:    b510        ..      PUSH     {r4,lr}
        0x00000ffe:    2400        .$      MOVS     r4,#0
        0x00001000:    e006        ..      B        0x1010 ; OpenKeyPad + 20
        0x00001002:    2203        ."      MOVS     r2,#3
        0x00001004:    4621        !F      MOV      r1,r4
        0x00001006:    2000        .       MOVS     r0,#0
        0x00001008:    f7fffd10    ....    BL       DrvGPIO_Open ; 0xa2c
        0x0000100c:    1c60        `.      ADDS     r0,r4,#1
        0x0000100e:    b2c4        ..      UXTB     r4,r0
        0x00001010:    2c06        .,      CMP      r4,#6
        0x00001012:    dbf6        ..      BLT      0x1002 ; OpenKeyPad + 6
        0x00001014:    bd10        ..      POP      {r4,pc}
        0x00001016:    0000        ..      MOVS     r0,r0
    i.Scankey
    Scankey
        0x00001018:    b5f8        ..      PUSH     {r3-r7,lr}
        0x0000101a:    481f        .H      LDR      r0,[pc,#124] ; [0x1098] = 0x1664
        0x0000101c:    6800        .h      LDR      r0,[r0,#0]
        0x0000101e:    9000        ..      STR      r0,[sp,#0]
        0x00001020:    2400        .$      MOVS     r4,#0
        0x00001022:    e034        4.      B        0x108e ; Scankey + 118
        0x00001024:    4668        hF      MOV      r0,sp
        0x00001026:    5d06        .]      LDRB     r6,[r0,r4]
        0x00001028:    2500        .%      MOVS     r5,#0
        0x0000102a:    e00f        ..      B        0x104c ; Scankey + 52
        0x0000102c:    07f0        ..      LSLS     r0,r6,#31
        0x0000102e:    0fc0        ..      LSRS     r0,r0,#31
        0x00001030:    2801        .(      CMP      r0,#1
        0x00001032:    d104        ..      BNE      0x103e ; Scankey + 38
        0x00001034:    4629        )F      MOV      r1,r5
        0x00001036:    2000        .       MOVS     r0,#0
        0x00001038:    f7fffd34    ..4.    BL       DrvGPIO_SetBit ; 0xaa4
        0x0000103c:    e003        ..      B        0x1046 ; Scankey + 46
        0x0000103e:    4629        )F      MOV      r1,r5
        0x00001040:    2000        .       MOVS     r0,#0
        0x00001042:    f7fffcc9    ....    BL       DrvGPIO_ClrBit ; 0x9d8
        0x00001046:    1076        v.      ASRS     r6,r6,#1
        0x00001048:    1c68        h.      ADDS     r0,r5,#1
        0x0000104a:    b2c5        ..      UXTB     r5,r0
        0x0000104c:    2d06        .-      CMP      r5,#6
        0x0000104e:    dbed        ..      BLT      0x102c ; Scankey + 20
        0x00001050:    f000f92e    ....    BL       delay ; 0x12b0
        0x00001054:    2103        .!      MOVS     r1,#3
        0x00001056:    2000        .       MOVS     r0,#0
        0x00001058:    f7fffcd4    ....    BL       DrvGPIO_GetBit ; 0xa04
        0x0000105c:    2800        .(      CMP      r0,#0
        0x0000105e:    d102        ..      BNE      0x1066 ; Scankey + 78
        0x00001060:    1c60        `.      ADDS     r0,r4,#1
        0x00001062:    b2c0        ..      UXTB     r0,r0
        0x00001064:    bdf8        ..      POP      {r3-r7,pc}
        0x00001066:    2104        .!      MOVS     r1,#4
        0x00001068:    2000        .       MOVS     r0,#0
        0x0000106a:    f7fffccb    ....    BL       DrvGPIO_GetBit ; 0xa04
        0x0000106e:    2800        .(      CMP      r0,#0
        0x00001070:    d102        ..      BNE      0x1078 ; Scankey + 96
        0x00001072:    1d20         .      ADDS     r0,r4,#4
        0x00001074:    b2c0        ..      UXTB     r0,r0
        0x00001076:    e7f5        ..      B        0x1064 ; Scankey + 76
        0x00001078:    2105        .!      MOVS     r1,#5
        0x0000107a:    2000        .       MOVS     r0,#0
        0x0000107c:    f7fffcc2    ....    BL       DrvGPIO_GetBit ; 0xa04
        0x00001080:    2800        .(      CMP      r0,#0
        0x00001082:    d102        ..      BNE      0x108a ; Scankey + 114
        0x00001084:    1de0        ..      ADDS     r0,r4,#7
        0x00001086:    b2c0        ..      UXTB     r0,r0
        0x00001088:    e7ec        ..      B        0x1064 ; Scankey + 76
        0x0000108a:    1c60        `.      ADDS     r0,r4,#1
        0x0000108c:    b2c4        ..      UXTB     r4,r0
        0x0000108e:    2c03        .,      CMP      r4,#3
        0x00001090:    dbc8        ..      BLT      0x1024 ; Scankey + 12
        0x00001092:    2000        .       MOVS     r0,#0
        0x00001094:    e7e6        ..      B        0x1064 ; Scankey + 76
    $d
        0x00001096:    0000        ..      DCW    0
        0x00001098:    00001664    d...    DCD    5732
    $t
    i.SetPACA
    SetPACA
        0x0000109c:    4a3b        ;J      LDR      r2,[pc,#236] ; [0x118c] = 0x200007dc
        0x0000109e:    68d2        .h      LDR      r2,[r2,#0xc]
        0x000010a0:    6892        .h      LDR      r2,[r2,#8]
        0x000010a2:    0892        ..      LSRS     r2,r2,#2
        0x000010a4:    0092        ..      LSLS     r2,r2,#2
        0x000010a6:    1c52        R.      ADDS     r2,r2,#1
        0x000010a8:    4b38        8K      LDR      r3,[pc,#224] ; [0x118c] = 0x200007dc
        0x000010aa:    68db        .h      LDR      r3,[r3,#0xc]
        0x000010ac:    609a        .`      STR      r2,[r3,#8]
        0x000010ae:    22b0        ."      MOVS     r2,#0xb0
        0x000010b0:    4302        .C      ORRS     r2,r2,r0
        0x000010b2:    4b36        6K      LDR      r3,[pc,#216] ; [0x118c] = 0x200007dc
        0x000010b4:    68db        .h      LDR      r3,[r3,#0xc]
        0x000010b6:    621a        .b      STR      r2,[r3,#0x20]
        0x000010b8:    4a34        4J      LDR      r2,[pc,#208] ; [0x118c] = 0x200007dc
        0x000010ba:    68d2        .h      LDR      r2,[r2,#0xc]
        0x000010bc:    6812        .h      LDR      r2,[r2,#0]
        0x000010be:    0852        R.      LSRS     r2,r2,#1
        0x000010c0:    0052        R.      LSLS     r2,r2,#1
        0x000010c2:    1c52        R.      ADDS     r2,r2,#1
        0x000010c4:    4b31        1K      LDR      r3,[pc,#196] ; [0x118c] = 0x200007dc
        0x000010c6:    68db        .h      LDR      r3,[r3,#0xc]
        0x000010c8:    601a        .`      STR      r2,[r3,#0]
        0x000010ca:    bf00        ..      NOP      
        0x000010cc:    4a2f        /J      LDR      r2,[pc,#188] ; [0x118c] = 0x200007dc
        0x000010ce:    68d2        .h      LDR      r2,[r2,#0xc]
        0x000010d0:    6812        .h      LDR      r2,[r2,#0]
        0x000010d2:    07d2        ..      LSLS     r2,r2,#31
        0x000010d4:    0fd2        ..      LSRS     r2,r2,#31
        0x000010d6:    2a01        .*      CMP      r2,#1
        0x000010d8:    d0f8        ..      BEQ      0x10cc ; SetPACA + 48
        0x000010da:    4a2c        ,J      LDR      r2,[pc,#176] ; [0x118c] = 0x200007dc
        0x000010dc:    68d2        .h      LDR      r2,[r2,#0xc]
        0x000010de:    6892        .h      LDR      r2,[r2,#8]
        0x000010e0:    0892        ..      LSRS     r2,r2,#2
        0x000010e2:    0092        ..      LSLS     r2,r2,#2
        0x000010e4:    4b29        )K      LDR      r3,[pc,#164] ; [0x118c] = 0x200007dc
        0x000010e6:    68db        .h      LDR      r3,[r3,#0xc]
        0x000010e8:    609a        .`      STR      r2,[r3,#8]
        0x000010ea:    4a28        (J      LDR      r2,[pc,#160] ; [0x118c] = 0x200007dc
        0x000010ec:    68d2        .h      LDR      r2,[r2,#0xc]
        0x000010ee:    6892        .h      LDR      r2,[r2,#8]
        0x000010f0:    0892        ..      LSRS     r2,r2,#2
        0x000010f2:    0092        ..      LSLS     r2,r2,#2
        0x000010f4:    1c52        R.      ADDS     r2,r2,#1
        0x000010f6:    4b25        %K      LDR      r3,[pc,#148] ; [0x118c] = 0x200007dc
        0x000010f8:    68db        .h      LDR      r3,[r3,#0xc]
        0x000010fa:    609a        .`      STR      r2,[r3,#8]
        0x000010fc:    110a        ..      ASRS     r2,r1,#4
        0x000010fe:    2310        .#      MOVS     r3,#0x10
        0x00001100:    431a        .C      ORRS     r2,r2,r3
        0x00001102:    4b22        "K      LDR      r3,[pc,#136] ; [0x118c] = 0x200007dc
        0x00001104:    68db        .h      LDR      r3,[r3,#0xc]
        0x00001106:    621a        .b      STR      r2,[r3,#0x20]
        0x00001108:    4a20         J      LDR      r2,[pc,#128] ; [0x118c] = 0x200007dc
        0x0000110a:    68d2        .h      LDR      r2,[r2,#0xc]
        0x0000110c:    6812        .h      LDR      r2,[r2,#0]
        0x0000110e:    0852        R.      LSRS     r2,r2,#1
        0x00001110:    0052        R.      LSLS     r2,r2,#1
        0x00001112:    1c52        R.      ADDS     r2,r2,#1
        0x00001114:    4b1d        .K      LDR      r3,[pc,#116] ; [0x118c] = 0x200007dc
        0x00001116:    68db        .h      LDR      r3,[r3,#0xc]
        0x00001118:    601a        .`      STR      r2,[r3,#0]
        0x0000111a:    bf00        ..      NOP      
        0x0000111c:    4a1b        .J      LDR      r2,[pc,#108] ; [0x118c] = 0x200007dc
        0x0000111e:    68d2        .h      LDR      r2,[r2,#0xc]
        0x00001120:    6812        .h      LDR      r2,[r2,#0]
        0x00001122:    07d2        ..      LSLS     r2,r2,#31
        0x00001124:    0fd2        ..      LSRS     r2,r2,#31
        0x00001126:    2a01        .*      CMP      r2,#1
        0x00001128:    d0f8        ..      BEQ      0x111c ; SetPACA + 128
        0x0000112a:    4a18        .J      LDR      r2,[pc,#96] ; [0x118c] = 0x200007dc
        0x0000112c:    68d2        .h      LDR      r2,[r2,#0xc]
        0x0000112e:    6892        .h      LDR      r2,[r2,#8]
        0x00001130:    0892        ..      LSRS     r2,r2,#2
        0x00001132:    0092        ..      LSLS     r2,r2,#2
        0x00001134:    4b15        .K      LDR      r3,[pc,#84] ; [0x118c] = 0x200007dc
        0x00001136:    68db        .h      LDR      r3,[r3,#0xc]
        0x00001138:    609a        .`      STR      r2,[r3,#8]
        0x0000113a:    4a14        .J      LDR      r2,[pc,#80] ; [0x118c] = 0x200007dc
        0x0000113c:    68d2        .h      LDR      r2,[r2,#0xc]
        0x0000113e:    6892        .h      LDR      r2,[r2,#8]
        0x00001140:    0892        ..      LSRS     r2,r2,#2
        0x00001142:    0092        ..      LSLS     r2,r2,#2
        0x00001144:    1c52        R.      ADDS     r2,r2,#1
        0x00001146:    4b11        .K      LDR      r3,[pc,#68] ; [0x118c] = 0x200007dc
        0x00001148:    68db        .h      LDR      r3,[r3,#0xc]
        0x0000114a:    609a        .`      STR      r2,[r3,#8]
        0x0000114c:    070a        ..      LSLS     r2,r1,#28
        0x0000114e:    0f12        ..      LSRS     r2,r2,#28
        0x00001150:    4b0e        .K      LDR      r3,[pc,#56] ; [0x118c] = 0x200007dc
        0x00001152:    68db        .h      LDR      r3,[r3,#0xc]
        0x00001154:    621a        .b      STR      r2,[r3,#0x20]
        0x00001156:    4a0d        .J      LDR      r2,[pc,#52] ; [0x118c] = 0x200007dc
        0x00001158:    68d2        .h      LDR      r2,[r2,#0xc]
        0x0000115a:    6812        .h      LDR      r2,[r2,#0]
        0x0000115c:    0852        R.      LSRS     r2,r2,#1
        0x0000115e:    0052        R.      LSLS     r2,r2,#1
        0x00001160:    1c52        R.      ADDS     r2,r2,#1
        0x00001162:    4b0a        .K      LDR      r3,[pc,#40] ; [0x118c] = 0x200007dc
        0x00001164:    68db        .h      LDR      r3,[r3,#0xc]
        0x00001166:    601a        .`      STR      r2,[r3,#0]
        0x00001168:    bf00        ..      NOP      
        0x0000116a:    4a08        .J      LDR      r2,[pc,#32] ; [0x118c] = 0x200007dc
        0x0000116c:    68d2        .h      LDR      r2,[r2,#0xc]
        0x0000116e:    6812        .h      LDR      r2,[r2,#0]
        0x00001170:    07d2        ..      LSLS     r2,r2,#31
        0x00001172:    0fd2        ..      LSRS     r2,r2,#31
        0x00001174:    2a01        .*      CMP      r2,#1
        0x00001176:    d0f8        ..      BEQ      0x116a ; SetPACA + 206
        0x00001178:    4a04        .J      LDR      r2,[pc,#16] ; [0x118c] = 0x200007dc
        0x0000117a:    68d2        .h      LDR      r2,[r2,#0xc]
        0x0000117c:    6892        .h      LDR      r2,[r2,#8]
        0x0000117e:    0892        ..      LSRS     r2,r2,#2
        0x00001180:    0092        ..      LSLS     r2,r2,#2
        0x00001182:    4b02        .K      LDR      r3,[pc,#8] ; [0x118c] = 0x200007dc
        0x00001184:    68db        .h      LDR      r3,[r3,#0xc]
        0x00001186:    609a        .`      STR      r2,[r3,#8]
        0x00001188:    4770        pG      BX       lr
    $d
        0x0000118a:    0000        ..      DCW    0
        0x0000118c:    200007dc    ...     DCD    536872924
    $t
    i.Show_Word
    Show_Word
        0x00001190:    b5fc        ..      PUSH     {r2-r7,lr}
        0x00001192:    4605        .F      MOV      r5,r0
        0x00001194:    460e        .F      MOV      r6,r1
        0x00001196:    4617        .F      MOV      r7,r2
        0x00001198:    2400        .$      MOVS     r4,#0
        0x0000119a:    2000        .       MOVS     r0,#0
        0x0000119c:    9001        ..      STR      r0,[sp,#4]
        0x0000119e:    4638        8F      MOV      r0,r7
        0x000011a0:    3820         8      SUBS     r0,r0,#0x20
        0x000011a2:    0100        ..      LSLS     r0,r0,#4
        0x000011a4:    9001        ..      STR      r0,[sp,#4]
        0x000011a6:    bf00        ..      NOP      
        0x000011a8:    e011        ..      B        0x11ce ; Show_Word + 62
        0x000011aa:    00f2        ..      LSLS     r2,r6,#3
        0x000011ac:    2381        .#      MOVS     r3,#0x81
        0x000011ae:    1a9a        ..      SUBS     r2,r3,r2
        0x000011b0:    1b12        ..      SUBS     r2,r2,r4
        0x000011b2:    b2d1        ..      UXTB     r1,r2
        0x000011b4:    066a        j.      LSLS     r2,r5,#25
        0x000011b6:    0e10        ..      LSRS     r0,r2,#24
        0x000011b8:    f7ffff70    ..p.    BL       SetPACA ; 0x109c
        0x000011bc:    9801        ..      LDR      r0,[sp,#4]
        0x000011be:    1900        ..      ADDS     r0,r0,r4
        0x000011c0:    4910        .I      LDR      r1,[pc,#64] ; [0x1204] = 0x200001e0
        0x000011c2:    5c08        .\      LDRB     r0,[r1,r0]
        0x000011c4:    9000        ..      STR      r0,[sp,#0]
        0x000011c6:    9800        ..      LDR      r0,[sp,#0]
        0x000011c8:    f000f820    .. .    BL       WriteData ; 0x120c
        0x000011cc:    1c64        d.      ADDS     r4,r4,#1
        0x000011ce:    2c08        .,      CMP      r4,#8
        0x000011d0:    dbeb        ..      BLT      0x11aa ; Show_Word + 26
        0x000011d2:    2400        .$      MOVS     r4,#0
        0x000011d4:    e013        ..      B        0x11fe ; Show_Word + 110
        0x000011d6:    00f2        ..      LSLS     r2,r6,#3
        0x000011d8:    2381        .#      MOVS     r3,#0x81
        0x000011da:    1a9a        ..      SUBS     r2,r3,r2
        0x000011dc:    1b12        ..      SUBS     r2,r2,r4
        0x000011de:    b2d1        ..      UXTB     r1,r2
        0x000011e0:    006a        j.      LSLS     r2,r5,#1
        0x000011e2:    1c52        R.      ADDS     r2,r2,#1
        0x000011e4:    b2d0        ..      UXTB     r0,r2
        0x000011e6:    f7ffff59    ..Y.    BL       SetPACA ; 0x109c
        0x000011ea:    9801        ..      LDR      r0,[sp,#4]
        0x000011ec:    1900        ..      ADDS     r0,r0,r4
        0x000011ee:    3008        .0      ADDS     r0,r0,#8
        0x000011f0:    4904        .I      LDR      r1,[pc,#16] ; [0x1204] = 0x200001e0
        0x000011f2:    5c08        .\      LDRB     r0,[r1,r0]
        0x000011f4:    9000        ..      STR      r0,[sp,#0]
        0x000011f6:    9800        ..      LDR      r0,[sp,#0]
        0x000011f8:    f000f808    ....    BL       WriteData ; 0x120c
        0x000011fc:    1c64        d.      ADDS     r4,r4,#1
        0x000011fe:    2c08        .,      CMP      r4,#8
        0x00001200:    dbe9        ..      BLT      0x11d6 ; Show_Word + 70
        0x00001202:    bdfc        ..      POP      {r2-r7,pc}
    $d
        0x00001204:    200001e0    ...     DCD    536871392
    $t
    i.SystemInit
    SystemInit
        0x00001208:    4770        pG      BX       lr
        0x0000120a:    0000        ..      MOVS     r0,r0
    i.WriteData
    WriteData
        0x0000120c:    4914        .I      LDR      r1,[pc,#80] ; [0x1260] = 0x200007dc
        0x0000120e:    68c9        .h      LDR      r1,[r1,#0xc]
        0x00001210:    6889        .h      LDR      r1,[r1,#8]
        0x00001212:    0889        ..      LSRS     r1,r1,#2
        0x00001214:    0089        ..      LSLS     r1,r1,#2
        0x00001216:    1c49        I.      ADDS     r1,r1,#1
        0x00001218:    4a11        .J      LDR      r2,[pc,#68] ; [0x1260] = 0x200007dc
        0x0000121a:    68d2        .h      LDR      r2,[r2,#0xc]
        0x0000121c:    6091        .`      STR      r1,[r2,#8]
        0x0000121e:    21ff        .!      MOVS     r1,#0xff
        0x00001220:    3101        .1      ADDS     r1,#1
        0x00001222:    4301        .C      ORRS     r1,r1,r0
        0x00001224:    4a0e        .J      LDR      r2,[pc,#56] ; [0x1260] = 0x200007dc
        0x00001226:    68d2        .h      LDR      r2,[r2,#0xc]
        0x00001228:    6211        .b      STR      r1,[r2,#0x20]
        0x0000122a:    490d        .I      LDR      r1,[pc,#52] ; [0x1260] = 0x200007dc
        0x0000122c:    68c9        .h      LDR      r1,[r1,#0xc]
        0x0000122e:    6809        .h      LDR      r1,[r1,#0]
        0x00001230:    0849        I.      LSRS     r1,r1,#1
        0x00001232:    0049        I.      LSLS     r1,r1,#1
        0x00001234:    1c49        I.      ADDS     r1,r1,#1
        0x00001236:    4a0a        .J      LDR      r2,[pc,#40] ; [0x1260] = 0x200007dc
        0x00001238:    68d2        .h      LDR      r2,[r2,#0xc]
        0x0000123a:    6011        .`      STR      r1,[r2,#0]
        0x0000123c:    bf00        ..      NOP      
        0x0000123e:    4908        .I      LDR      r1,[pc,#32] ; [0x1260] = 0x200007dc
        0x00001240:    68c9        .h      LDR      r1,[r1,#0xc]
        0x00001242:    6809        .h      LDR      r1,[r1,#0]
        0x00001244:    07c9        ..      LSLS     r1,r1,#31
        0x00001246:    0fc9        ..      LSRS     r1,r1,#31
        0x00001248:    2901        .)      CMP      r1,#1
        0x0000124a:    d0f8        ..      BEQ      0x123e ; WriteData + 50
        0x0000124c:    4904        .I      LDR      r1,[pc,#16] ; [0x1260] = 0x200007dc
        0x0000124e:    68c9        .h      LDR      r1,[r1,#0xc]
        0x00001250:    6889        .h      LDR      r1,[r1,#8]
        0x00001252:    0889        ..      LSRS     r1,r1,#2
        0x00001254:    0089        ..      LSLS     r1,r1,#2
        0x00001256:    4a02        .J      LDR      r2,[pc,#8] ; [0x1260] = 0x200007dc
        0x00001258:    68d2        .h      LDR      r2,[r2,#0xc]
        0x0000125a:    6091        .`      STR      r1,[r2,#8]
        0x0000125c:    4770        pG      BX       lr
    $d
        0x0000125e:    0000        ..      DCW    0
        0x00001260:    200007dc    ...     DCD    536872924
    $t
    i.close_seven_segment
    close_seven_segment
        0x00001264:    b510        ..      PUSH     {r4,lr}
        0x00001266:    2104        .!      MOVS     r1,#4
        0x00001268:    2002        .       MOVS     r0,#2
        0x0000126a:    f7fffbb5    ....    BL       DrvGPIO_ClrBit ; 0x9d8
        0x0000126e:    2105        .!      MOVS     r1,#5
        0x00001270:    2002        .       MOVS     r0,#2
        0x00001272:    f7fffbb1    ....    BL       DrvGPIO_ClrBit ; 0x9d8
        0x00001276:    2106        .!      MOVS     r1,#6
        0x00001278:    2002        .       MOVS     r0,#2
        0x0000127a:    f7fffbad    ....    BL       DrvGPIO_ClrBit ; 0x9d8
        0x0000127e:    2107        .!      MOVS     r1,#7
        0x00001280:    2002        .       MOVS     r0,#2
        0x00001282:    f7fffba9    ....    BL       DrvGPIO_ClrBit ; 0x9d8
        0x00001286:    bd10        ..      POP      {r4,pc}
    i.clr_all_panel
    clr_all_panel
        0x00001288:    b510        ..      PUSH     {r4,lr}
        0x0000128a:    2400        .$      MOVS     r4,#0
        0x0000128c:    2100        .!      MOVS     r1,#0
        0x0000128e:    4608        .F      MOV      r0,r1
        0x00001290:    f7ffff04    ....    BL       SetPACA ; 0x109c
        0x00001294:    bf00        ..      NOP      
        0x00001296:    e003        ..      B        0x12a0 ; clr_all_panel + 24
        0x00001298:    2000        .       MOVS     r0,#0
        0x0000129a:    f7ffffb7    ....    BL       WriteData ; 0x120c
        0x0000129e:    1c64        d.      ADDS     r4,r4,#1
        0x000012a0:    2021        !       MOVS     r0,#0x21
        0x000012a2:    0140        @.      LSLS     r0,r0,#5
        0x000012a4:    4284        .B      CMP      r4,r0
        0x000012a6:    dbf7        ..      BLT      0x1298 ; clr_all_panel + 16
        0x000012a8:    200f        .       MOVS     r0,#0xf
        0x000012aa:    f7ffffaf    ....    BL       WriteData ; 0x120c
        0x000012ae:    bd10        ..      POP      {r4,pc}
    i.delay
    delay
        0x000012b0:    2000        .       MOVS     r0,#0
        0x000012b2:    e000        ..      B        0x12b6 ; delay + 6
        0x000012b4:    1c40        @.      ADDS     r0,r0,#1
        0x000012b6:    217d        }!      MOVS     r1,#0x7d
        0x000012b8:    00c9        ..      LSLS     r1,r1,#3
        0x000012ba:    4288        .B      CMP      r0,r1
        0x000012bc:    dbfa        ..      BLT      0x12b4 ; delay + 4
        0x000012be:    4770        pG      BX       lr
    i.draw_LCD
    draw_LCD
        0x000012c0:    b5f8        ..      PUSH     {r3-r7,lr}
        0x000012c2:    4607        .F      MOV      r7,r0
        0x000012c4:    2640        @&      MOVS     r6,#0x40
        0x000012c6:    2080        .       MOVS     r0,#0x80
        0x000012c8:    9000        ..      STR      r0,[sp,#0]
        0x000012ca:    2400        .$      MOVS     r4,#0
        0x000012cc:    2500        .%      MOVS     r5,#0
        0x000012ce:    bf00        ..      NOP      
        0x000012d0:    e014        ..      B        0x12fc ; draw_LCD + 60
        0x000012d2:    2400        .$      MOVS     r4,#0
        0x000012d4:    e00b        ..      B        0x12ee ; draw_LCD + 46
        0x000012d6:    2281        ."      MOVS     r2,#0x81
        0x000012d8:    1b52        R.      SUBS     r2,r2,r5
        0x000012da:    b2d1        ..      UXTB     r1,r2
        0x000012dc:    b2e0        ..      UXTB     r0,r4
        0x000012de:    f7fffedd    ....    BL       SetPACA ; 0x109c
        0x000012e2:    00e9        ..      LSLS     r1,r5,#3
        0x000012e4:    1909        ..      ADDS     r1,r1,r4
        0x000012e6:    5c78        x\      LDRB     r0,[r7,r1]
        0x000012e8:    f7ffff90    ....    BL       WriteData ; 0x120c
        0x000012ec:    1c64        d.      ADDS     r4,r4,#1
        0x000012ee:    17f1        ..      ASRS     r1,r6,#31
        0x000012f0:    0f49        I.      LSRS     r1,r1,#29
        0x000012f2:    1989        ..      ADDS     r1,r1,r6
        0x000012f4:    10c9        ..      ASRS     r1,r1,#3
        0x000012f6:    42a1        .B      CMP      r1,r4
        0x000012f8:    dced        ..      BGT      0x12d6 ; draw_LCD + 22
        0x000012fa:    1c6d        m.      ADDS     r5,r5,#1
        0x000012fc:    9800        ..      LDR      r0,[sp,#0]
        0x000012fe:    4285        .B      CMP      r5,r0
        0x00001300:    dbe7        ..      BLT      0x12d2 ; draw_LCD + 18
        0x00001302:    bdf8        ..      POP      {r3-r7,pc}
    i.main
    main
        0x00001304:    b08a        ..      SUB      sp,sp,#0x28
        0x00001306:    4877        wH      LDR      r0,[pc,#476] ; [0x14e4] = 0x44bb8000
        0x00001308:    9009        ..      STR      r0,[sp,#0x24]
        0x0000130a:    2001        .       MOVS     r0,#1
        0x0000130c:    9008        ..      STR      r0,[sp,#0x20]
        0x0000130e:    9809        ..      LDR      r0,[sp,#0x24]
        0x00001310:    f7fffa82    ....    BL       __aeabi_f2iz ; 0x818
        0x00001314:    b200        ..      SXTH     r0,r0
        0x00001316:    9007        ..      STR      r0,[sp,#0x1c]
        0x00001318:    2102        .!      MOVS     r1,#2
        0x0000131a:    9106        ..      STR      r1,[sp,#0x18]
        0x0000131c:    2100        .!      MOVS     r1,#0
        0x0000131e:    9105        ..      STR      r1,[sp,#0x14]
        0x00001320:    2401        .$      MOVS     r4,#1
        0x00001322:    2000        .       MOVS     r0,#0
        0x00001324:    9004        ..      STR      r0,[sp,#0x10]
        0x00001326:    2700        .'      MOVS     r7,#0
        0x00001328:    2059        Y       MOVS     r0,#0x59
        0x0000132a:    496f        oI      LDR      r1,[pc,#444] ; [0x14e8] = 0x50000100
        0x0000132c:    6008        .`      STR      r0,[r1,#0]
        0x0000132e:    2016        .       MOVS     r0,#0x16
        0x00001330:    6008        .`      STR      r0,[r1,#0]
        0x00001332:    2088        .       MOVS     r0,#0x88
        0x00001334:    6008        .`      STR      r0,[r1,#0]
        0x00001336:    486d        mH      LDR      r0,[pc,#436] ; [0x14ec] = 0x50000200
        0x00001338:    6800        .h      LDR      r0,[r0,#0]
        0x0000133a:    2102        .!      MOVS     r1,#2
        0x0000133c:    4388        .C      BICS     r0,r0,r1
        0x0000133e:    1c80        ..      ADDS     r0,r0,#2
        0x00001340:    496a        jI      LDR      r1,[pc,#424] ; [0x14ec] = 0x50000200
        0x00001342:    6008        .`      STR      r0,[r1,#0]
        0x00001344:    4608        .F      MOV      r0,r1
        0x00001346:    6800        .h      LDR      r0,[r0,#0]
        0x00001348:    43a0        .C      BICS     r0,r0,r4
        0x0000134a:    1c40        @.      ADDS     r0,r0,#1
        0x0000134c:    6008        .`      STR      r0,[r1,#0]
        0x0000134e:    4608        .F      MOV      r0,r1
        0x00001350:    6900        .i      LDR      r0,[r0,#0x10]
        0x00001352:    08c0        ..      LSRS     r0,r0,#3
        0x00001354:    00c0        ..      LSLS     r0,r0,#3
        0x00001356:    6108        .a      STR      r0,[r1,#0x10]
        0x00001358:    2000        .       MOVS     r0,#0
        0x0000135a:    4963        cI      LDR      r1,[pc,#396] ; [0x14e8] = 0x50000100
        0x0000135c:    6008        .`      STR      r0,[r1,#0]
        0x0000135e:    f7fffe4d    ..M.    BL       OpenKeyPad ; 0xffc
        0x00001362:    f7ffff7f    ....    BL       close_seven_segment ; 0x1264
        0x00001366:    f7fffdeb    ....    BL       LoadIndex ; 0xf40
        0x0000136a:    e0ba        ..      B        0x14e2 ; main + 478
        0x0000136c:    9804        ..      LDR      r0,[sp,#0x10]
        0x0000136e:    2800        .(      CMP      r0,#0
        0x00001370:    d004        ..      BEQ      0x137c ; main + 120
        0x00001372:    2801        .(      CMP      r0,#1
        0x00001374:    d022        ".      BEQ      0x13bc ; main + 184
        0x00001376:    2802        .(      CMP      r0,#2
        0x00001378:    d17d        }.      BNE      0x1476 ; main + 370
        0x0000137a:    e081        ..      B        0x1480 ; main + 380
        0x0000137c:    f7fffe4c    ..L.    BL       Scankey ; 0x1018
        0x00001380:    b245        E.      SXTB     r5,r0
        0x00001382:    2d01        .-      CMP      r5,#1
        0x00001384:    d119        ..      BNE      0x13ba ; main + 182
        0x00001386:    2001        .       MOVS     r0,#1
        0x00001388:    9004        ..      STR      r0,[sp,#0x10]
        0x0000138a:    f7fffc0d    ....    BL       InitData ; 0xba8
        0x0000138e:    2700        .'      MOVS     r7,#0
        0x00001390:    4854        TH      LDR      r0,[pc,#336] ; [0x14e4] = 0x44bb8000
        0x00001392:    9009        ..      STR      r0,[sp,#0x24]
        0x00001394:    f7fffbfe    ....    BL       GetRand ; 0xb94
        0x00001398:    4604        .F      MOV      r4,r0
        0x0000139a:    b2e1        ..      UXTB     r1,r4
        0x0000139c:    2001        .       MOVS     r0,#1
        0x0000139e:    f7fffd35    ..5.    BL       LoadImg ; 0xe0c
        0x000013a2:    2001        .       MOVS     r0,#1
        0x000013a4:    9008        ..      STR      r0,[sp,#0x20]
        0x000013a6:    9809        ..      LDR      r0,[sp,#0x24]
        0x000013a8:    f7fffa36    ..6.    BL       __aeabi_f2iz ; 0x818
        0x000013ac:    b200        ..      SXTH     r0,r0
        0x000013ae:    9007        ..      STR      r0,[sp,#0x1c]
        0x000013b0:    f7fffd12    ....    BL       LoadBuf ; 0xdd8
        0x000013b4:    484e        NH      LDR      r0,[pc,#312] ; [0x14f0] = 0x20000bfc
        0x000013b6:    f7ffff83    ....    BL       draw_LCD ; 0x12c0
        0x000013ba:    e091        ..      B        0x14e0 ; main + 476
        0x000013bc:    aa05        ..      ADD      r2,sp,#0x14
        0x000013be:    a906        ..      ADD      r1,sp,#0x18
        0x000013c0:    4638        8F      MOV      r0,r7
        0x000013c2:    f000f8af    ....    BL       seg_display ; 0x1524
        0x000013c6:    9807        ..      LDR      r0,[sp,#0x1c]
        0x000013c8:    2800        .(      CMP      r0,#0
        0x000013ca:    d004        ..      BEQ      0x13d6 ; main + 210
        0x000013cc:    9807        ..      LDR      r0,[sp,#0x1c]
        0x000013ce:    1e40        @.      SUBS     r0,r0,#1
        0x000013d0:    b200        ..      SXTH     r0,r0
        0x000013d2:    9007        ..      STR      r0,[sp,#0x1c]
        0x000013d4:    e025        %.      B        0x1422 ; main + 286
        0x000013d6:    9808        ..      LDR      r0,[sp,#0x20]
        0x000013d8:    2801        .(      CMP      r0,#1
        0x000013da:    d107        ..      BNE      0x13ec ; main + 232
        0x000013dc:    2002        .       MOVS     r0,#2
        0x000013de:    9004        ..      STR      r0,[sp,#0x10]
        0x000013e0:    f7ffff52    ..R.    BL       clr_all_panel ; 0x1288
        0x000013e4:    b2f8        ..      UXTB     r0,r7
        0x000013e6:    f7fffdc9    ....    BL       Loadres ; 0xf7c
        0x000013ea:    e079        y.      B        0x14e0 ; main + 476
        0x000013ec:    b2e1        ..      UXTB     r1,r4
        0x000013ee:    2000        .       MOVS     r0,#0
        0x000013f0:    f7fffd0c    ....    BL       LoadImg ; 0xe0c
        0x000013f4:    bf00        ..      NOP      
        0x000013f6:    f7fffbcd    ....    BL       GetRand ; 0xb94
        0x000013fa:    4606        .F      MOV      r6,r0
        0x000013fc:    42a6        .B      CMP      r6,r4
        0x000013fe:    d0fa        ..      BEQ      0x13f6 ; main + 242
        0x00001400:    4634        4F      MOV      r4,r6
        0x00001402:    b2e1        ..      UXTB     r1,r4
        0x00001404:    2001        .       MOVS     r0,#1
        0x00001406:    f7fffd01    ....    BL       LoadImg ; 0xe0c
        0x0000140a:    2001        .       MOVS     r0,#1
        0x0000140c:    9008        ..      STR      r0,[sp,#0x20]
        0x0000140e:    9809        ..      LDR      r0,[sp,#0x24]
        0x00001410:    f7fffa02    ....    BL       __aeabi_f2iz ; 0x818
        0x00001414:    b200        ..      SXTH     r0,r0
        0x00001416:    9007        ..      STR      r0,[sp,#0x1c]
        0x00001418:    f7fffcde    ....    BL       LoadBuf ; 0xdd8
        0x0000141c:    4834        4H      LDR      r0,[pc,#208] ; [0x14f0] = 0x20000bfc
        0x0000141e:    f7ffff4f    ..O.    BL       draw_LCD ; 0x12c0
        0x00001422:    f7fffdf9    ....    BL       Scankey ; 0x1018
        0x00001426:    b245        E.      SXTB     r5,r0
        0x00001428:    1ee8        ..      SUBS     r0,r5,#3
        0x0000142a:    42a0        .B      CMP      r0,r4
        0x0000142c:    d11d        ..      BNE      0x146a ; main + 358
        0x0000142e:    9808        ..      LDR      r0,[sp,#0x20]
        0x00001430:    2800        .(      CMP      r0,#0
        0x00001432:    d01a        ..      BEQ      0x146a ; main + 358
        0x00001434:    b2e1        ..      UXTB     r1,r4
        0x00001436:    2002        .       MOVS     r0,#2
        0x00001438:    f7fffce8    ....    BL       LoadImg ; 0xe0c
        0x0000143c:    2000        .       MOVS     r0,#0
        0x0000143e:    9008        ..      STR      r0,[sp,#0x20]
        0x00001440:    1c78        x.      ADDS     r0,r7,#1
        0x00001442:    b247        G.      SXTB     r7,r0
        0x00001444:    9809        ..      LDR      r0,[sp,#0x24]
        0x00001446:    f7fff9bf    ....    BL       __aeabi_f2d ; 0x7c8
        0x0000144a:    4a2a        *J      LDR      r2,[pc,#168] ; [0x14f4] = 0x70a3d70a
        0x0000144c:    4b2a        *K      LDR      r3,[pc,#168] ; [0x14f8] = 0x3fef0a3d
        0x0000144e:    9101        ..      STR      r1,[sp,#4]
        0x00001450:    9000        ..      STR      r0,[sp,#0]
        0x00001452:    f7fff871    ..q.    BL       __aeabi_dmul ; 0x538
        0x00001456:    9103        ..      STR      r1,[sp,#0xc]
        0x00001458:    9002        ..      STR      r0,[sp,#8]
        0x0000145a:    f7fff82f    ../.    BL       __aeabi_d2f ; 0x4bc
        0x0000145e:    9009        ..      STR      r0,[sp,#0x24]
        0x00001460:    f7fffcba    ....    BL       LoadBuf ; 0xdd8
        0x00001464:    4822        "H      LDR      r0,[pc,#136] ; [0x14f0] = 0x20000bfc
        0x00001466:    f7ffff2b    ..+.    BL       draw_LCD ; 0x12c0
        0x0000146a:    2d03        .-      CMP      r5,#3
        0x0000146c:    d107        ..      BNE      0x147e ; main + 378
        0x0000146e:    2002        .       MOVS     r0,#2
        0x00001470:    9004        ..      STR      r0,[sp,#0x10]
        0x00001472:    b2f8        ..      UXTB     r0,r7
        0x00001474:    e000        ..      B        0x1478 ; main + 372
        0x00001476:    e032        2.      B        0x14de ; main + 474
        0x00001478:    f7fffd80    ....    BL       Loadres ; 0xf7c
        0x0000147c:    e030        0.      B        0x14e0 ; main + 476
        0x0000147e:    e02f        /.      B        0x14e0 ; main + 476
        0x00001480:    aa05        ..      ADD      r2,sp,#0x14
        0x00001482:    a906        ..      ADD      r1,sp,#0x18
        0x00001484:    4638        8F      MOV      r0,r7
        0x00001486:    f000f84d    ..M.    BL       seg_display ; 0x1524
        0x0000148a:    f7fffdc5    ....    BL       Scankey ; 0x1018
        0x0000148e:    b245        E.      SXTB     r5,r0
        0x00001490:    2d01        .-      CMP      r5,#1
        0x00001492:    d11a        ..      BNE      0x14ca ; main + 454
        0x00001494:    2001        .       MOVS     r0,#1
        0x00001496:    9004        ..      STR      r0,[sp,#0x10]
        0x00001498:    f7fffb86    ....    BL       InitData ; 0xba8
        0x0000149c:    2700        .'      MOVS     r7,#0
        0x0000149e:    4811        .H      LDR      r0,[pc,#68] ; [0x14e4] = 0x44bb8000
        0x000014a0:    9009        ..      STR      r0,[sp,#0x24]
        0x000014a2:    f7fffb77    ..w.    BL       GetRand ; 0xb94
        0x000014a6:    4604        .F      MOV      r4,r0
        0x000014a8:    b2e1        ..      UXTB     r1,r4
        0x000014aa:    2001        .       MOVS     r0,#1
        0x000014ac:    f7fffcae    ....    BL       LoadImg ; 0xe0c
        0x000014b0:    2001        .       MOVS     r0,#1
        0x000014b2:    9008        ..      STR      r0,[sp,#0x20]
        0x000014b4:    9809        ..      LDR      r0,[sp,#0x24]
        0x000014b6:    f7fff9af    ....    BL       __aeabi_f2iz ; 0x818
        0x000014ba:    b200        ..      SXTH     r0,r0
        0x000014bc:    9007        ..      STR      r0,[sp,#0x1c]
        0x000014be:    f7fffc8b    ....    BL       LoadBuf ; 0xdd8
        0x000014c2:    480b        .H      LDR      r0,[pc,#44] ; [0x14f0] = 0x20000bfc
        0x000014c4:    f7fffefc    ....    BL       draw_LCD ; 0x12c0
        0x000014c8:    e00a        ..      B        0x14e0 ; main + 476
        0x000014ca:    2d02        .-      CMP      r5,#2
        0x000014cc:    d106        ..      BNE      0x14dc ; main + 472
        0x000014ce:    2000        .       MOVS     r0,#0
        0x000014d0:    9004        ..      STR      r0,[sp,#0x10]
        0x000014d2:    f7fffec7    ....    BL       close_seven_segment ; 0x1264
        0x000014d6:    f7fffd33    ..3.    BL       LoadIndex ; 0xf40
        0x000014da:    e001        ..      B        0x14e0 ; main + 476
        0x000014dc:    bf00        ..      NOP      
        0x000014de:    bf00        ..      NOP      
        0x000014e0:    bf00        ..      NOP      
        0x000014e2:    e743        C.      B        0x136c ; main + 104
    $d
        0x000014e4:    44bb8000    ...D    DCD    1153138688
        0x000014e8:    50000100    ...P    DCD    1342177536
        0x000014ec:    50000200    ...P    DCD    1342177792
        0x000014f0:    20000bfc    ...     DCD    536873980
        0x000014f4:    70a3d70a    ...p    DCD    1889785610
        0x000014f8:    3fef0a3d    =..?    DCD    1072630333
    $t
    i.print_lcd
    print_lcd
        0x000014fc:    b570        p.      PUSH     {r4-r6,lr}
        0x000014fe:    4606        .F      MOV      r6,r0
        0x00001500:    460c        .F      MOV      r4,r1
        0x00001502:    2500        .%      MOVS     r5,#0
        0x00001504:    bf00        ..      NOP      
        0x00001506:    7822        "x      LDRB     r2,[r4,#0]
        0x00001508:    1c64        d.      ADDS     r4,r4,#1
        0x0000150a:    b2e9        ..      UXTB     r1,r5
        0x0000150c:    4630        0F      MOV      r0,r6
        0x0000150e:    f7fffe3f    ..?.    BL       Show_Word ; 0x1190
        0x00001512:    1c6d        m.      ADDS     r5,r5,#1
        0x00001514:    2d0f        .-      CMP      r5,#0xf
        0x00001516:    dd00        ..      BLE      0x151a ; print_lcd + 30
        0x00001518:    e002        ..      B        0x1520 ; print_lcd + 36
        0x0000151a:    7820         x      LDRB     r0,[r4,#0]
        0x0000151c:    2800        .(      CMP      r0,#0
        0x0000151e:    d1f2        ..      BNE      0x1506 ; print_lcd + 10
        0x00001520:    bf00        ..      NOP      
        0x00001522:    bd70        p.      POP      {r4-r6,pc}
    i.seg_display
    seg_display
        0x00001524:    b5fe        ..      PUSH     {r1-r7,lr}
        0x00001526:    4607        .F      MOV      r7,r0
        0x00001528:    460e        .F      MOV      r6,r1
        0x0000152a:    4615        .F      MOV      r5,r2
        0x0000152c:    9702        ..      STR      r7,[sp,#8]
        0x0000152e:    2000        .       MOVS     r0,#0
        0x00001530:    9001        ..      STR      r0,[sp,#4]
        0x00001532:    8830        0.      LDRH     r0,[r6,#0]
        0x00001534:    2800        .(      CMP      r0,#0
        0x00001536:    d004        ..      BEQ      0x1542 ; seg_display + 30
        0x00001538:    8830        0.      LDRH     r0,[r6,#0]
        0x0000153a:    1e40        @.      SUBS     r0,r0,#1
        0x0000153c:    b200        ..      SXTH     r0,r0
        0x0000153e:    8030        0.      STRH     r0,[r6,#0]
        0x00001540:    e066        f.      B        0x1610 ; seg_display + 236
        0x00001542:    e009        ..      B        0x1558 ; seg_display + 52
        0x00001544:    9801        ..      LDR      r0,[sp,#4]
        0x00001546:    1c40        @.      ADDS     r0,r0,#1
        0x00001548:    b240        @.      SXTB     r0,r0
        0x0000154a:    9001        ..      STR      r0,[sp,#4]
        0x0000154c:    210a        .!      MOVS     r1,#0xa
        0x0000154e:    9802        ..      LDR      r0,[sp,#8]
        0x00001550:    f7feff0e    ....    BL       __aeabi_idiv ; 0x370
        0x00001554:    b240        @.      SXTB     r0,r0
        0x00001556:    9002        ..      STR      r0,[sp,#8]
        0x00001558:    9802        ..      LDR      r0,[sp,#8]
        0x0000155a:    2800        .(      CMP      r0,#0
        0x0000155c:    d1f2        ..      BNE      0x1544 ; seg_display + 32
        0x0000155e:    2001        .       MOVS     r0,#1
        0x00001560:    8030        0.      STRH     r0,[r6,#0]
        0x00001562:    7828        (x      LDRB     r0,[r5,#0]
        0x00001564:    1c40        @.      ADDS     r0,r0,#1
        0x00001566:    b240        @.      SXTB     r0,r0
        0x00001568:    7028        (p      STRB     r0,[r5,#0]
        0x0000156a:    2100        .!      MOVS     r1,#0
        0x0000156c:    5669        iV      LDRSB    r1,[r5,r1]
        0x0000156e:    9801        ..      LDR      r0,[sp,#4]
        0x00001570:    1e40        @.      SUBS     r0,r0,#1
        0x00001572:    4281        .B      CMP      r1,r0
        0x00001574:    dd01        ..      BLE      0x157a ; seg_display + 86
        0x00001576:    2000        .       MOVS     r0,#0
        0x00001578:    7028        (p      STRB     r0,[r5,#0]
        0x0000157a:    9702        ..      STR      r7,[sp,#8]
        0x0000157c:    2000        .       MOVS     r0,#0
        0x0000157e:    5628        (V      LDRSB    r0,[r5,r0]
        0x00001580:    2800        .(      CMP      r0,#0
        0x00001582:    d006        ..      BEQ      0x1592 ; seg_display + 110
        0x00001584:    2801        .(      CMP      r0,#1
        0x00001586:    d010        ..      BEQ      0x15aa ; seg_display + 134
        0x00001588:    2802        .(      CMP      r0,#2
        0x0000158a:    d01e        ..      BEQ      0x15ca ; seg_display + 166
        0x0000158c:    2803        .(      CMP      r0,#3
        0x0000158e:    d13d        =.      BNE      0x160c ; seg_display + 232
        0x00001590:    e02b        +.      B        0x15ea ; seg_display + 198
        0x00001592:    210a        .!      MOVS     r1,#0xa
        0x00001594:    9802        ..      LDR      r0,[sp,#8]
        0x00001596:    f7fefeeb    ....    BL       __aeabi_idiv ; 0x370
        0x0000159a:    460c        .F      MOV      r4,r1
        0x0000159c:    f7fffe62    ..b.    BL       close_seven_segment ; 0x1264
        0x000015a0:    b2e1        ..      UXTB     r1,r4
        0x000015a2:    2000        .       MOVS     r0,#0
        0x000015a4:    f000f836    ..6.    BL       show_seven_segment ; 0x1614
        0x000015a8:    e031        1.      B        0x160e ; seg_display + 234
        0x000015aa:    210a        .!      MOVS     r1,#0xa
        0x000015ac:    9802        ..      LDR      r0,[sp,#8]
        0x000015ae:    f7fefedf    ....    BL       __aeabi_idiv ; 0x370
        0x000015b2:    210a        .!      MOVS     r1,#0xa
        0x000015b4:    9000        ..      STR      r0,[sp,#0]
        0x000015b6:    f7fefedb    ....    BL       __aeabi_idiv ; 0x370
        0x000015ba:    b24c        L.      SXTB     r4,r1
        0x000015bc:    f7fffe52    ..R.    BL       close_seven_segment ; 0x1264
        0x000015c0:    b2e1        ..      UXTB     r1,r4
        0x000015c2:    2001        .       MOVS     r0,#1
        0x000015c4:    f000f826    ..&.    BL       show_seven_segment ; 0x1614
        0x000015c8:    e021        !.      B        0x160e ; seg_display + 234
        0x000015ca:    2164        d!      MOVS     r1,#0x64
        0x000015cc:    9802        ..      LDR      r0,[sp,#8]
        0x000015ce:    f7fefecf    ....    BL       __aeabi_idiv ; 0x370
        0x000015d2:    210a        .!      MOVS     r1,#0xa
        0x000015d4:    9000        ..      STR      r0,[sp,#0]
        0x000015d6:    f7fefecb    ....    BL       __aeabi_idiv ; 0x370
        0x000015da:    b24c        L.      SXTB     r4,r1
        0x000015dc:    f7fffe42    ..B.    BL       close_seven_segment ; 0x1264
        0x000015e0:    b2e1        ..      UXTB     r1,r4
        0x000015e2:    2002        .       MOVS     r0,#2
        0x000015e4:    f000f816    ....    BL       show_seven_segment ; 0x1614
        0x000015e8:    e011        ..      B        0x160e ; seg_display + 234
        0x000015ea:    217d        }!      MOVS     r1,#0x7d
        0x000015ec:    00c9        ..      LSLS     r1,r1,#3
        0x000015ee:    9802        ..      LDR      r0,[sp,#8]
        0x000015f0:    f7fefebe    ....    BL       __aeabi_idiv ; 0x370
        0x000015f4:    210a        .!      MOVS     r1,#0xa
        0x000015f6:    9000        ..      STR      r0,[sp,#0]
        0x000015f8:    f7fefeba    ....    BL       __aeabi_idiv ; 0x370
        0x000015fc:    b24c        L.      SXTB     r4,r1
        0x000015fe:    f7fffe31    ..1.    BL       close_seven_segment ; 0x1264
        0x00001602:    b2e1        ..      UXTB     r1,r4
        0x00001604:    2003        .       MOVS     r0,#3
        0x00001606:    f000f805    ....    BL       show_seven_segment ; 0x1614
        0x0000160a:    e000        ..      B        0x160e ; seg_display + 234
        0x0000160c:    bf00        ..      NOP      
        0x0000160e:    bf00        ..      NOP      
        0x00001610:    bdfe        ..      POP      {r1-r7,pc}
        0x00001612:    0000        ..      MOVS     r0,r0
    i.show_seven_segment
    show_seven_segment
        0x00001614:    b5f8        ..      PUSH     {r3-r7,lr}
        0x00001616:    4605        .F      MOV      r5,r0
        0x00001618:    460f        .F      MOV      r7,r1
        0x0000161a:    480d        .H      LDR      r0,[pc,#52] ; [0x1650] = 0x200007d0
        0x0000161c:    5dc6        .]      LDRB     r6,[r0,r7]
        0x0000161e:    2400        .$      MOVS     r4,#0
        0x00001620:    e00f        ..      B        0x1642 ; show_seven_segment + 46
        0x00001622:    07f0        ..      LSLS     r0,r6,#31
        0x00001624:    0fc0        ..      LSRS     r0,r0,#31
        0x00001626:    2801        .(      CMP      r0,#1
        0x00001628:    d104        ..      BNE      0x1634 ; show_seven_segment + 32
        0x0000162a:    4621        !F      MOV      r1,r4
        0x0000162c:    2004        .       MOVS     r0,#4
        0x0000162e:    f7fffa39    ..9.    BL       DrvGPIO_SetBit ; 0xaa4
        0x00001632:    e003        ..      B        0x163c ; show_seven_segment + 40
        0x00001634:    4621        !F      MOV      r1,r4
        0x00001636:    2004        .       MOVS     r0,#4
        0x00001638:    f7fff9ce    ....    BL       DrvGPIO_ClrBit ; 0x9d8
        0x0000163c:    1076        v.      ASRS     r6,r6,#1
        0x0000163e:    1c60        `.      ADDS     r0,r4,#1
        0x00001640:    b2c4        ..      UXTB     r4,r0
        0x00001642:    2c08        .,      CMP      r4,#8
        0x00001644:    dbed        ..      BLT      0x1622 ; show_seven_segment + 14
        0x00001646:    1d29        ).      ADDS     r1,r5,#4
        0x00001648:    2002        .       MOVS     r0,#2
        0x0000164a:    f7fffa2b    ..+.    BL       DrvGPIO_SetBit ; 0xaa4
        0x0000164e:    bdf8        ..      POP      {r3-r7,pc}
    $d
        0x00001650:    200007d0    ...     DCD    536872912
    $d.realdata
    .constdata
    x$fpl$usenofp
    __I$use$fp
        0x00001654:    72756f59    Your    DCD    1920298841
        0x00001658:    6f635320     Sco    DCD    1868780320
        0x0000165c:    003a6572    re:.    DCD    3827058
        0x00001660:    00000000    ....    DCD    0
    .constdata
        0x00001664:    003e3d3b    ;=>.    DCD    4078907
    Region$$Table$$Base
        0x00001668:    00001688    ....    DCD    5768
        0x0000166c:    20000000    ...     DCD    536870912
        0x00001670:    000007fc    ....    DCD    2044
        0x00001674:    00000104    ....    DCD    260
        0x00001678:    00001e84    ....    DCD    7812
        0x0000167c:    200007fc    ...     DCD    536872956
        0x00001680:    00000d44    D...    DCD    3396
        0x00001684:    00000120     ...    DCD    288
    Region$$Table$$Limit

** Section #2 'ER_RW' (SHT_PROGBITS) [SHF_ALLOC + SHF_WRITE]
    Size   : 2044 bytes (alignment 4)
    Address: 0x20000000


** Section #3 'ER_ZI' (SHT_NOBITS) [SHF_ALLOC + SHF_WRITE]
    Size   : 3396 bytes (alignment 8)
    Address: 0x200007fc


** Section #4 '.debug_abbrev' (SHT_PROGBITS)
    Size   : 1476 bytes


** Section #5 '.debug_frame' (SHT_PROGBITS)
    Size   : 1692 bytes


** Section #6 '.debug_info' (SHT_PROGBITS)
    Size   : 109784 bytes


** Section #7 '.debug_line' (SHT_PROGBITS)
    Size   : 5632 bytes


** Section #8 '.debug_loc' (SHT_PROGBITS)
    Size   : 2044 bytes


** Section #9 '.debug_macinfo' (SHT_PROGBITS)
    Size   : 141388 bytes


** Section #10 '.debug_pubnames' (SHT_PROGBITS)
    Size   : 1195 bytes


** Section #11 '.symtab' (SHT_SYMTAB)
    Size   : 7024 bytes (alignment 4)
    String table #12 '.strtab'
    Last local symbol no. 277


** Section #12 '.strtab' (SHT_STRTAB)
    Size   : 5564 bytes


** Section #13 '.note' (SHT_NOTE)
    Size   : 28 bytes (alignment 4)


** Section #14 '.comment' (SHT_PROGBITS)
    Size   : 5304 bytes


** Section #15 '.shstrtab' (SHT_STRTAB)
    Size   : 156 bytes


