
========================================================================

** ELF Header Information

    File Name: .\obj\Whack-A-Mole.axf

    Machine class: ELFCLASS32 (32-bit)
    Data encoding: ELFDATA2LSB (Little endian)
    Header version: EV_CURRENT (Current version)
    Operating System ABI: none
    ABI Version: 0
    File Type: ET_EXEC (Executable) (2)
    Machine: EM_ARM (ARM)

    Image Entry point: 0x000001b5
    Flags: EF_ARM_HASENTRY (0x05000002)

    ARM ELF revision: 5 (ABI version 2)

    Built with
    ARM C/C++ Compiler, 4.1 [Build 481]
    ARM Assembler, 4.1 [Build 481]
    ARM Linker, 4.1 [Build 481] 
    ARM Linker, 4.1 [Build 478] 

    Header size: 52 bytes (0x34)
    Program header entry size: 32 bytes (0x20)
    Section header entry size: 40 bytes (0x28)

    Program header entries: 1
    Section header entries: 16

    Program header offset: 286836 (0x00046074)
    Section header offset: 286868 (0x00046094)

    Section header string table index: 15

========================================================================

** Program header #0 (PT_LOAD) [PF_X + PF_W + PF_R + PF_ARM_ENTRY]
    Size : 11200 bytes (7804 bytes in file)
    Virtual address: 0x00000000 (Alignment 8)


========================================================================

** Section #1 'ER_RO' (SHT_PROGBITS) [SHF_ALLOC + SHF_EXECINSTR]
    Size   : 5760 bytes (alignment 4)
    Address: 0x00000000

    $d.realdata
    RESET
    __Vectors
        0x00000000:    20001540    @..     DCD    536876352
        0x00000004:    000001b5    ....    DCD    437
        0x00000008:    000001d5    ....    DCD    469
        0x0000000c:    000001d7    ....    DCD    471
        0x00000010:    00000000    ....    DCD    0
        0x00000014:    00000000    ....    DCD    0
        0x00000018:    00000000    ....    DCD    0
        0x0000001c:    00000000    ....    DCD    0
        0x00000020:    00000000    ....    DCD    0
        0x00000024:    00000000    ....    DCD    0
        0x00000028:    00000000    ....    DCD    0
        0x0000002c:    000001d9    ....    DCD    473
        0x00000030:    00000000    ....    DCD    0
        0x00000034:    00000000    ....    DCD    0
        0x00000038:    000001db    ....    DCD    475
        0x0000003c:    000001dd    ....    DCD    477
        0x00000040:    000001df    ....    DCD    479
        0x00000044:    000001df    ....    DCD    479
        0x00000048:    00000ac9    ....    DCD    2761
        0x0000004c:    00000aed    ....    DCD    2797
        0x00000050:    00000b11    ....    DCD    2833
        0x00000054:    00000b4d    M...    DCD    2893
        0x00000058:    000001df    ....    DCD    479
        0x0000005c:    000001df    ....    DCD    479
        0x00000060:    000001df    ....    DCD    479
        0x00000064:    000001df    ....    DCD    479
        0x00000068:    000001df    ....    DCD    479
        0x0000006c:    000001df    ....    DCD    479
        0x00000070:    000001df    ....    DCD    479
        0x00000074:    000001df    ....    DCD    479
        0x00000078:    000001df    ....    DCD    479
        0x0000007c:    000001df    ....    DCD    479
        0x00000080:    000001df    ....    DCD    479
        0x00000084:    000001df    ....    DCD    479
        0x00000088:    000001df    ....    DCD    479
        0x0000008c:    000001df    ....    DCD    479
        0x00000090:    000001df    ....    DCD    479
        0x00000094:    000001df    ....    DCD    479
        0x00000098:    000001df    ....    DCD    479
        0x0000009c:    000001df    ....    DCD    479
        0x000000a0:    000001df    ....    DCD    479
        0x000000a4:    000001df    ....    DCD    479
        0x000000a8:    000001df    ....    DCD    479
        0x000000ac:    000001df    ....    DCD    479
        0x000000b0:    000001df    ....    DCD    479
        0x000000b4:    000001df    ....    DCD    479
        0x000000b8:    000001df    ....    DCD    479
        0x000000bc:    000001df    ....    DCD    479
    $t
    !!!main
    __main
        0x000000c0:    f000f802    ....    BL       __scatterload ; 0xc8
        0x000000c4:    f000f84a    ..J.    BL       __rt_entry ; 0x15c
    !!!scatter
    __scatterload
    __scatterload_rt2
    __scatterload_rt2_thumb_only
        0x000000c8:    a00c        ..      ADR      r0,{pc}+0x34 ; 0xfc
        0x000000ca:    c830        0.      LDM      r0!,{r4,r5}
        0x000000cc:    3808        .8      SUBS     r0,r0,#8
        0x000000ce:    1824        $.      ADDS     r4,r4,r0
        0x000000d0:    182d        -.      ADDS     r5,r5,r0
        0x000000d2:    46a2        .F      MOV      r10,r4
        0x000000d4:    1e67        g.      SUBS     r7,r4,#1
        0x000000d6:    46ab        .F      MOV      r11,r5
    __scatterload_null
        0x000000d8:    4654        TF      MOV      r4,r10
        0x000000da:    465d        ]F      MOV      r5,r11
        0x000000dc:    42ac        .B      CMP      r4,r5
        0x000000de:    d101        ..      BNE      0xe4 ; __scatterload_null + 12
        0x000000e0:    f000f83c    ..<.    BL       __rt_entry ; 0x15c
        0x000000e4:    467e        ~F      MOV      r6,pc
        0x000000e6:    3e0f        .>      SUBS     r6,r6,#0xf
        0x000000e8:    cc0f        ..      LDM      r4!,{r0-r3}
        0x000000ea:    46b6        .F      MOV      lr,r6
        0x000000ec:    2601        .&      MOVS     r6,#1
        0x000000ee:    4233        3B      TST      r3,r6
        0x000000f0:    d000        ..      BEQ      0xf4 ; __scatterload_null + 28
        0x000000f2:    1afb        ..      SUBS     r3,r7,r3
        0x000000f4:    46a2        .F      MOV      r10,r4
        0x000000f6:    46ab        .F      MOV      r11,r5
        0x000000f8:    4333        3C      ORRS     r3,r3,r6
        0x000000fa:    4718        .G      BX       r3
    $d
        0x000000fc:    00001564    d...    DCD    5476
        0x00000100:    00001584    ....    DCD    5508
    $t
    !!handler_copy
    __scatterload_copy
        0x00000104:    3a10        .:      SUBS     r2,r2,#0x10
        0x00000106:    d302        ..      BCC      0x10e ; __scatterload_copy + 10
        0x00000108:    c878        x.      LDM      r0!,{r3-r6}
        0x0000010a:    c178        x.      STM      r1!,{r3-r6}
        0x0000010c:    d8fa        ..      BHI      __scatterload_copy ; 0x104
        0x0000010e:    0752        R.      LSLS     r2,r2,#29
        0x00000110:    d301        ..      BCC      0x116 ; __scatterload_copy + 18
        0x00000112:    c830        0.      LDM      r0!,{r4,r5}
        0x00000114:    c130        0.      STM      r1!,{r4,r5}
        0x00000116:    d501        ..      BPL      0x11c ; __scatterload_copy + 24
        0x00000118:    6804        .h      LDR      r4,[r0,#0]
        0x0000011a:    600c        .`      STR      r4,[r1,#0]
        0x0000011c:    4770        pG      BX       lr
        0x0000011e:    0000        ..      MOVS     r0,r0
    !!handler_zi
    __scatterload_zeroinit
        0x00000120:    2300        .#      MOVS     r3,#0
        0x00000122:    2400        .$      MOVS     r4,#0
        0x00000124:    2500        .%      MOVS     r5,#0
        0x00000126:    2600        .&      MOVS     r6,#0
        0x00000128:    3a10        .:      SUBS     r2,r2,#0x10
        0x0000012a:    d301        ..      BCC      0x130 ; __scatterload_zeroinit + 16
        0x0000012c:    c178        x.      STM      r1!,{r3-r6}
        0x0000012e:    d8fb        ..      BHI      0x128 ; __scatterload_zeroinit + 8
        0x00000130:    0752        R.      LSLS     r2,r2,#29
        0x00000132:    d300        ..      BCC      0x136 ; __scatterload_zeroinit + 22
        0x00000134:    c130        0.      STM      r1!,{r4,r5}
        0x00000136:    d500        ..      BPL      0x13a ; __scatterload_zeroinit + 26
        0x00000138:    600b        .`      STR      r3,[r1,#0]
        0x0000013a:    4770        pG      BX       lr
    .ARM.Collect$$_printf_percent$$00000000
    _printf_percent
        0x0000013c:    b510        ..      PUSH     {r4,lr}
    .ARM.Collect$$_printf_percent$$00000009
    _printf_d
        0x0000013e:    2964        d)      CMP      r1,#0x64
        0x00000140:    d102        ..      BNE      _printf_percent_end ; 0x148
        0x00000142:    f000f8b5    ....    BL       _printf_int_dec ; 0x2b0
        0x00000146:    bd10        ..      POP      {r4,pc}
    .ARM.Collect$$_printf_percent$$00000017
    _printf_percent_end
        0x00000148:    2000        .       MOVS     r0,#0
        0x0000014a:    bd10        ..      POP      {r4,pc}
    .ARM.Collect$$libinit$$00000000
    __rt_lib_init
        0x0000014c:    b51f        ..      PUSH     {r0-r4,lr}
        0x0000014e:    46c0        .F      MOV      r8,r8
        0x00000150:    46c0        .F      MOV      r8,r8
    .ARM.Collect$$libinit$$00000006
    .ARM.Collect$$libinit$$00000008
    .ARM.Collect$$libinit$$00000009
    __rt_lib_init_heap_1
    __rt_lib_init_rand_2
    __rt_lib_init_user_alloc_1
        0x00000152:    f000f8fa    ....    BL       _rand_init ; 0x34a
    .ARM.Collect$$libinit$$0000000A
    .ARM.Collect$$libinit$$0000000D
    .ARM.Collect$$libinit$$0000000F
    .ARM.Collect$$libinit$$00000011
    .ARM.Collect$$libinit$$00000013
    .ARM.Collect$$libinit$$00000015
    .ARM.Collect$$libinit$$00000017
    .ARM.Collect$$libinit$$00000019
    .ARM.Collect$$libinit$$0000001B
    .ARM.Collect$$libinit$$0000001D
    .ARM.Collect$$libinit$$0000001F
    .ARM.Collect$$libinit$$00000021
    .ARM.Collect$$libinit$$00000028
    .ARM.Collect$$libinit$$0000002A
    .ARM.Collect$$libinit$$0000002C
    .ARM.Collect$$libinit$$0000002E
    .ARM.Collect$$libinit$$0000002F
    __rt_lib_init_alloca_1
    __rt_lib_init_argv_1
    __rt_lib_init_atexit_1
    __rt_lib_init_clock_1
    __rt_lib_init_cpp_1
    __rt_lib_init_exceptions_1
    __rt_lib_init_fp_trap_1
    __rt_lib_init_getenv_1
    __rt_lib_init_lc_collate_1
    __rt_lib_init_lc_ctype_1
    __rt_lib_init_lc_monetary_1
    __rt_lib_init_lc_numeric_1
    __rt_lib_init_lc_time_1
    __rt_lib_init_rand_1
    __rt_lib_init_return
    __rt_lib_init_signal_1
    __rt_lib_init_stdio_1
        0x00000156:    bd1f        ..      POP      {r0-r4,pc}
    .ARM.Collect$$libshutdown$$00000000
    __rt_lib_shutdown
        0x00000158:    b510        ..      PUSH     {r4,lr}
    .ARM.Collect$$libshutdown$$00000003
    .ARM.Collect$$libshutdown$$00000006
    .ARM.Collect$$libshutdown$$00000009
    .ARM.Collect$$libshutdown$$0000000B
    .ARM.Collect$$libshutdown$$0000000E
    .ARM.Collect$$libshutdown$$0000000F
    __rt_lib_shutdown_fp_trap_1
    __rt_lib_shutdown_heap_1
    __rt_lib_shutdown_return
    __rt_lib_shutdown_signal_1
    __rt_lib_shutdown_stdio_1
    __rt_lib_shutdown_user_alloc_1
        0x0000015a:    bd10        ..      POP      {r4,pc}
    .ARM.Collect$$rtentry$$00000000
    .ARM.Collect$$rtentry$$00000002
    .ARM.Collect$$rtentry$$00000004
    __rt_entry
    __rt_entry_presh_1
    __rt_entry_sh
        0x0000015c:    f000fc07    ....    BL       __user_setup_stackheap ; 0x96e
        0x00000160:    4611        .F      MOV      r1,r2
    .ARM.Collect$$rtentry$$00000009
    .ARM.Collect$$rtentry$$0000000A
    __rt_entry_li
    __rt_entry_postsh_1
        0x00000162:    f7fffff3    ....    BL       __rt_lib_init ; 0x14c
    .ARM.Collect$$rtentry$$0000000C
    .ARM.Collect$$rtentry$$0000000D
    __rt_entry_main
    __rt_entry_postli_1
        0x00000166:    f001f8c9    ....    BL       main ; 0x12fc
        0x0000016a:    f000fc1f    ....    BL       exit ; 0x9ac
    .ARM.Collect$$rtexit$$00000000
    __rt_exit
        0x0000016e:    b403        ..      PUSH     {r0,r1}
    .ARM.Collect$$rtexit$$00000002
    .ARM.Collect$$rtexit$$00000003
    __rt_exit_ls
    __rt_exit_prels_1
        0x00000170:    f7fffff2    ....    BL       __rt_lib_shutdown ; 0x158
    .ARM.Collect$$rtexit$$00000004
    __rt_exit_exit
        0x00000174:    bc03        ..      POP      {r0,r1}
        0x00000176:    f000fc23    ..#.    BL       _sys_exit ; 0x9c0
        0x0000017a:    0000        ..      MOVS     r0,r0
    .emb_text
    rand
        0x0000017c:    b430        0.      PUSH     {r4,r5}
        0x0000017e:    490c        .I      LDR      r1,[pc,#48] ; [0x1b0] = 0x200010d8
        0x00000180:    680c        .h      LDR      r4,[r1,#0]
        0x00000182:    684a        Jh      LDR      r2,[r1,#4]
        0x00000184:    6823        #h      LDR      r3,[r4,#0]
        0x00000186:    6810        .h      LDR      r0,[r2,#0]
        0x00000188:    18c0        ..      ADDS     r0,r0,r3
        0x0000018a:    6010        .`      STR      r0,[r2,#0]
        0x0000018c:    1d24        $.      ADDS     r4,r4,#4
        0x0000018e:    1d12        ..      ADDS     r2,r2,#4
        0x00000190:    428c        .B      CMP      r4,r1
        0x00000192:    d207        ..      BCS      0x1a4 ; rand + 40
        0x00000194:    428a        .B      CMP      r2,r1
        0x00000196:    d208        ..      BCS      0x1aa ; rand + 46
        0x00000198:    600c        .`      STR      r4,[r1,#0]
        0x0000019a:    604a        J`      STR      r2,[r1,#4]
        0x0000019c:    bc30        0.      POP      {r4,r5}
        0x0000019e:    0040        @.      LSLS     r0,r0,#1
        0x000001a0:    0840        @.      LSRS     r0,r0,#1
        0x000001a2:    4770        pG      BX       lr
        0x000001a4:    000c        ..      MOVS     r4,r1
        0x000001a6:    3cdc        .<      SUBS     r4,r4,#0xdc
        0x000001a8:    e7f6        ..      B        0x198 ; rand + 28
        0x000001aa:    000a        ..      MOVS     r2,r1
        0x000001ac:    3adc        .:      SUBS     r2,r2,#0xdc
        0x000001ae:    e7f3        ..      B        0x198 ; rand + 28
    $d
        0x000001b0:    200010d8    ...     DCD    536875224
    $t
    .text
    Reset_Handler
        0x000001b4:    480d        .H      LDR      r0,[pc,#52] ; [0x1ec] = 0x50000100
        0x000001b6:    490e        .I      LDR      r1,[pc,#56] ; [0x1f0] = 0x59
        0x000001b8:    6001        .`      STR      r1,[r0,#0]
        0x000001ba:    490e        .I      LDR      r1,[pc,#56] ; [0x1f4] = 0x16
        0x000001bc:    6001        .`      STR      r1,[r0,#0]
        0x000001be:    490e        .I      LDR      r1,[pc,#56] ; [0x1f8] = 0x88
        0x000001c0:    6001        .`      STR      r1,[r0,#0]
        0x000001c2:    4a0e        .J      LDR      r2,[pc,#56] ; [0x1fc] = 0x50000024
        0x000001c4:    490e        .I      LDR      r1,[pc,#56] ; [0x200] = 0x5aa5
        0x000001c6:    6011        .`      STR      r1,[r2,#0]
        0x000001c8:    2100        .!      MOVS     r1,#0
        0x000001ca:    6001        .`      STR      r1,[r0,#0]
        0x000001cc:    480d        .H      LDR      r0,[pc,#52] ; [0x204] = 0x1201
        0x000001ce:    4780        .G      BLX      r0
        0x000001d0:    480d        .H      LDR      r0,[pc,#52] ; [0x208] = 0xc1
        0x000001d2:    4700        .G      BX       r0
    NMI_Handler
        0x000001d4:    e7fe        ..      B        NMI_Handler ; 0x1d4
    HardFault_Handler
        0x000001d6:    e7fe        ..      B        HardFault_Handler ; 0x1d6
    SVC_Handler
        0x000001d8:    e7fe        ..      B        SVC_Handler ; 0x1d8
    PendSV_Handler
        0x000001da:    e7fe        ..      B        PendSV_Handler ; 0x1da
    SysTick_Handler
        0x000001dc:    e7fe        ..      B        SysTick_Handler ; 0x1dc
    Default_Handler
    ACMP_IRQHandler
    ADC_IRQHandler
    BOD_IRQHandler
    CAN0_IRQHandler
    I2C0_IRQHandler
    I2C1_IRQHandler
    I2S_IRQHandler
    PDMA_IRQHandler
    PS2_IRQHandler
    PWMA_IRQHandler
    PWMB_IRQHandler
    PWRWU_IRQHandler
    RTC_IRQHandler
    SPI0_IRQHandler
    SPI1_IRQHandler
    SPI2_IRQHandler
    SPI3_IRQHandler
    TMR0_IRQHandler
    TMR1_IRQHandler
    TMR2_IRQHandler
    TMR3_IRQHandler
    UART02_IRQHandler
    UART1_IRQHandler
    USBD_IRQHandler
    WDT_IRQHandler
        0x000001de:    e7fe        ..      B        Default_Handler ; 0x1de
    __user_initial_stackheap
        0x000001e0:    480a        .H      LDR      r0,[pc,#40] ; [0x20c] = 0x20001140
        0x000001e2:    490b        .I      LDR      r1,[pc,#44] ; [0x210] = 0x20001540
        0x000001e4:    4a09        .J      LDR      r2,[pc,#36] ; [0x20c] = 0x20001140
        0x000001e6:    4b0b        .K      LDR      r3,[pc,#44] ; [0x214] = 0x20001140
        0x000001e8:    4770        pG      BX       lr
    $d
        0x000001ea:    0000        ..      DCW    0
        0x000001ec:    50000100    ...P    DCD    1342177536
        0x000001f0:    00000059    Y...    DCD    89
        0x000001f4:    00000016    ....    DCD    22
        0x000001f8:    00000088    ....    DCD    136
        0x000001fc:    50000024    $..P    DCD    1342177316
        0x00000200:    00005aa5    .Z..    DCD    23205
        0x00000204:    00001201    ....    DCD    4609
        0x00000208:    000000c1    ....    DCD    193
        0x0000020c:    20001140    @..     DCD    536875328
        0x00000210:    20001540    @..     DCD    536876352
        0x00000214:    20001140    @..     DCD    536875328
    $t
    .text
    __2sprintf
        0x00000218:    b40f        ..      PUSH     {r0-r3}
        0x0000021a:    b51c        ..      PUSH     {r2-r4,lr}
        0x0000021c:    4b07        .K      LDR      r3,[pc,#28] ; [0x23c] = 0x719
        0x0000021e:    aa06        ..      ADD      r2,sp,#0x18
        0x00000220:    447b        {D      ADD      r3,r3,pc
        0x00000222:    4669        iF      MOV      r1,sp
        0x00000224:    9000        ..      STR      r0,[sp,#0]
        0x00000226:    9805        ..      LDR      r0,[sp,#0x14]
        0x00000228:    f000fb75    ..u.    BL       _printf_char_common ; 0x916
        0x0000022c:    2000        .       MOVS     r0,#0
        0x0000022e:    4669        iF      MOV      r1,sp
        0x00000230:    f000fb84    ....    BL       _sputc ; 0x93c
        0x00000234:    bc1c        ..      POP      {r2-r4}
        0x00000236:    bc08        ..      POP      {r3}
        0x00000238:    b004        ..      ADD      sp,sp,#0x10
        0x0000023a:    4718        .G      BX       r3
    $d
        0x0000023c:    00000719    ....    DCD    1817
    $t
    .text
    __printf
        0x00000240:    b5f8        ..      PUSH     {r3-r7,lr}
        0x00000242:    4604        .F      MOV      r4,r0
        0x00000244:    460e        .F      MOV      r6,r1
        0x00000246:    2000        .       MOVS     r0,#0
        0x00000248:    e02d        -.      B        0x2a6 ; __printf + 102
        0x0000024a:    68e1        .h      LDR      r1,[r4,#0xc]
        0x0000024c:    4620         F      MOV      r0,r4
        0x0000024e:    4788        .G      BLX      r1
        0x00000250:    2800        .(      CMP      r0,#0
        0x00000252:    d02a        *.      BEQ      0x2aa ; __printf + 106
        0x00000254:    2825        %(      CMP      r0,#0x25
        0x00000256:    d002        ..      BEQ      0x25e ; __printf + 30
        0x00000258:    6862        bh      LDR      r2,[r4,#4]
        0x0000025a:    68a1        .h      LDR      r1,[r4,#8]
        0x0000025c:    e020         .      B        0x2a0 ; __printf + 96
        0x0000025e:    68e1        .h      LDR      r1,[r4,#0xc]
        0x00000260:    4620         F      MOV      r0,r4
        0x00000262:    2700        .'      MOVS     r7,#0
        0x00000264:    4788        .G      BLX      r1
        0x00000266:    0005        ..      MOVS     r5,r0
        0x00000268:    d01f        ..      BEQ      0x2aa ; __printf + 106
        0x0000026a:    4628        (F      MOV      r0,r5
        0x0000026c:    3841        A8      SUBS     r0,r0,#0x41
        0x0000026e:    2819        .(      CMP      r0,#0x19
        0x00000270:    d802        ..      BHI      0x278 ; __printf + 56
        0x00000272:    2701        .'      MOVS     r7,#1
        0x00000274:    02ff        ..      LSLS     r7,r7,#11
        0x00000276:    3520         5      ADDS     r5,r5,#0x20
        0x00000278:    4632        2F      MOV      r2,r6
        0x0000027a:    4620         F      MOV      r0,r4
        0x0000027c:    6027        '`      STR      r7,[r4,#0]
        0x0000027e:    4629        )F      MOV      r1,r5
        0x00000280:    f7ffff5c    ..\.    BL       _printf_percent ; 0x13c
        0x00000284:    2800        .(      CMP      r0,#0
        0x00000286:    d008        ..      BEQ      0x29a ; __printf + 90
        0x00000288:    2801        .(      CMP      r0,#1
        0x0000028a:    d004        ..      BEQ      0x296 ; __printf + 86
        0x0000028c:    1df6        ..      ADDS     r6,r6,#7
        0x0000028e:    08f6        ..      LSRS     r6,r6,#3
        0x00000290:    00f6        ..      LSLS     r6,r6,#3
        0x00000292:    3608        .6      ADDS     r6,r6,#8
        0x00000294:    e7d9        ..      B        0x24a ; __printf + 10
        0x00000296:    1d36        6.      ADDS     r6,r6,#4
        0x00000298:    e7d7        ..      B        0x24a ; __printf + 10
        0x0000029a:    6862        bh      LDR      r2,[r4,#4]
        0x0000029c:    4628        (F      MOV      r0,r5
        0x0000029e:    68a1        .h      LDR      r1,[r4,#8]
        0x000002a0:    4790        .G      BLX      r2
        0x000002a2:    6a20         j      LDR      r0,[r4,#0x20]
        0x000002a4:    1c40        @.      ADDS     r0,r0,#1
        0x000002a6:    6220         b      STR      r0,[r4,#0x20]
        0x000002a8:    e7cf        ..      B        0x24a ; __printf + 10
        0x000002aa:    6a20         j      LDR      r0,[r4,#0x20]
        0x000002ac:    bdf8        ..      POP      {r3-r7,pc}
        0x000002ae:    0000        ..      MOVS     r0,r0
    .text
    _printf_int_dec
        0x000002b0:    b5f7        ..      PUSH     {r0-r2,r4-r7,lr}
        0x000002b2:    2600        .&      MOVS     r6,#0
        0x000002b4:    2975        u)      CMP      r1,#0x75
        0x000002b6:    6810        .h      LDR      r0,[r2,#0]
        0x000002b8:    9900        ..      LDR      r1,[sp,#0]
        0x000002ba:    a514        ..      ADR      r5,{pc}+0x52 ; 0x30c
        0x000002bc:    d011        ..      BEQ      0x2e2 ; _printf_int_dec + 50
        0x000002be:    46c0        .F      MOV      r8,r8
        0x000002c0:    46c0        .F      MOV      r8,r8
        0x000002c2:    2800        .(      CMP      r0,#0
        0x000002c4:    da02        ..      BGE      0x2cc ; _printf_int_dec + 28
        0x000002c6:    4240        @B      RSBS     r0,r0,#0
        0x000002c8:    a511        ..      ADR      r5,{pc}+0x48 ; 0x310
        0x000002ca:    e008        ..      B        0x2de ; _printf_int_dec + 46
        0x000002cc:    9900        ..      LDR      r1,[sp,#0]
        0x000002ce:    6809        .h      LDR      r1,[r1,#0]
        0x000002d0:    078a        ..      LSLS     r2,r1,#30
        0x000002d2:    d501        ..      BPL      0x2d8 ; _printf_int_dec + 40
        0x000002d4:    a50f        ..      ADR      r5,{pc}+0x40 ; 0x314
        0x000002d6:    e002        ..      B        0x2de ; _printf_int_dec + 46
        0x000002d8:    0749        I.      LSLS     r1,r1,#29
        0x000002da:    d504        ..      BPL      0x2e6 ; _printf_int_dec + 54
        0x000002dc:    a50e        ..      ADR      r5,{pc}+0x3c ; 0x318
        0x000002de:    2601        .&      MOVS     r6,#1
        0x000002e0:    e001        ..      B        0x2e6 ; _printf_int_dec + 54
        0x000002e2:    46c0        .F      MOV      r8,r8
        0x000002e4:    46c0        .F      MOV      r8,r8
        0x000002e6:    9f00        ..      LDR      r7,[sp,#0]
        0x000002e8:    2400        .$      MOVS     r4,#0
        0x000002ea:    3724        $7      ADDS     r7,r7,#0x24
        0x000002ec:    e004        ..      B        0x2f8 ; _printf_int_dec + 72
        0x000002ee:    f000fb2a    ..*.    BL       __rt_udiv10 ; 0x946
        0x000002f2:    3130        01      ADDS     r1,r1,#0x30
        0x000002f4:    5539        9U      STRB     r1,[r7,r4]
        0x000002f6:    1c64        d.      ADDS     r4,r4,#1
        0x000002f8:    2800        .(      CMP      r0,#0
        0x000002fa:    d1f8        ..      BNE      0x2ee ; _printf_int_dec + 62
        0x000002fc:    4633        3F      MOV      r3,r6
        0x000002fe:    462a        *F      MOV      r2,r5
        0x00000300:    4621        !F      MOV      r1,r4
        0x00000302:    9800        ..      LDR      r0,[sp,#0]
        0x00000304:    f000faac    ....    BL       _printf_int_common ; 0x860
        0x00000308:    bdfe        ..      POP      {r1-r7,pc}
    $d
        0x0000030a:    0000        ..      DCW    0
        0x0000030c:    00000000    ....    DCD    0
        0x00000310:    0000002d    -...    DCD    45
        0x00000314:    0000002b    +...    DCD    43
        0x00000318:    00000020     ...    DCD    32
    $t
    .text
    srand
        0x0000031c:    4a0c        .J      LDR      r2,[pc,#48] ; [0x350] = 0x20001078
        0x0000031e:    b530        0.      PUSH     {r4,r5,lr}
        0x00000320:    4611        .F      MOV      r1,r2
        0x00000322:    4c0c        .L      LDR      r4,[pc,#48] ; [0x354] = 0x66d619e1
        0x00000324:    3144        D1      ADDS     r1,r1,#0x44
        0x00000326:    460b        .F      MOV      r3,r1
        0x00000328:    3bc0        .;      SUBS     r3,r3,#0xc0
        0x0000032a:    620b        .b      STR      r3,[r1,#0x20]
        0x0000032c:    61ca        .a      STR      r2,[r1,#0x1c]
        0x0000032e:    2137        7!      MOVS     r1,#0x37
        0x00000330:    e006        ..      B        0x340 ; srand + 36
        0x00000332:    0c02        ..      LSRS     r2,r0,#16
        0x00000334:    008d        ..      LSLS     r5,r1,#2
        0x00000336:    1812        ..      ADDS     r2,r2,r0
        0x00000338:    515a        ZQ      STR      r2,[r3,r5]
        0x0000033a:    4a07        .J      LDR      r2,[pc,#28] ; [0x358] = 0x10dcd
        0x0000033c:    4350        PC      MULS     r0,r2,r0
        0x0000033e:    1900        ..      ADDS     r0,r0,r4
        0x00000340:    460a        .F      MOV      r2,r1
        0x00000342:    1e49        I.      SUBS     r1,r1,#1
        0x00000344:    2a00        .*      CMP      r2,#0
        0x00000346:    dcf4        ..      BGT      0x332 ; srand + 22
        0x00000348:    bd30        0.      POP      {r4,r5,pc}
    _rand_init
        0x0000034a:    2001        .       MOVS     r0,#1
        0x0000034c:    e7e6        ..      B        srand ; 0x31c
    $d
        0x0000034e:    0000        ..      DCW    0
        0x00000350:    20001078    x..     DCD    536875128
        0x00000354:    66d619e1    ...f    DCD    1725307361
        0x00000358:    00010dcd    ....    DCD    69069
    $t
    .text
    __aeabi_uidiv
    __aeabi_uidivmod
        0x0000035c:    2200        ."      MOVS     r2,#0
        0x0000035e:    0903        ..      LSRS     r3,r0,#4
        0x00000360:    428b        .B      CMP      r3,r1
        0x00000362:    d32c        ,.      BCC      0x3be ; __aeabi_idiv + 78
        0x00000364:    0a03        ..      LSRS     r3,r0,#8
        0x00000366:    428b        .B      CMP      r3,r1
        0x00000368:    d311        ..      BCC      0x38e ; __aeabi_idiv + 30
        0x0000036a:    2300        .#      MOVS     r3,#0
        0x0000036c:    469c        .F      MOV      r12,r3
        0x0000036e:    e04e        N.      B        0x40e ; __aeabi_idiv + 158
    __aeabi_idiv
    __aeabi_idivmod
        0x00000370:    4603        .F      MOV      r3,r0
        0x00000372:    430b        .C      ORRS     r3,r3,r1
        0x00000374:    d43c        <.      BMI      0x3f0 ; __aeabi_idiv + 128
        0x00000376:    2200        ."      MOVS     r2,#0
        0x00000378:    0843        C.      LSRS     r3,r0,#1
        0x0000037a:    428b        .B      CMP      r3,r1
        0x0000037c:    d331        1.      BCC      0x3e2 ; __aeabi_idiv + 114
        0x0000037e:    0903        ..      LSRS     r3,r0,#4
        0x00000380:    428b        .B      CMP      r3,r1
        0x00000382:    d31c        ..      BCC      0x3be ; __aeabi_idiv + 78
        0x00000384:    0a03        ..      LSRS     r3,r0,#8
        0x00000386:    428b        .B      CMP      r3,r1
        0x00000388:    d301        ..      BCC      0x38e ; __aeabi_idiv + 30
        0x0000038a:    4694        .F      MOV      r12,r2
        0x0000038c:    e03f        ?.      B        0x40e ; __aeabi_idiv + 158
        0x0000038e:    09c3        ..      LSRS     r3,r0,#7
        0x00000390:    428b        .B      CMP      r3,r1
        0x00000392:    d301        ..      BCC      0x398 ; __aeabi_idiv + 40
        0x00000394:    01cb        ..      LSLS     r3,r1,#7
        0x00000396:    1ac0        ..      SUBS     r0,r0,r3
        0x00000398:    4152        RA      ADCS     r2,r2,r2
        0x0000039a:    0983        ..      LSRS     r3,r0,#6
        0x0000039c:    428b        .B      CMP      r3,r1
        0x0000039e:    d301        ..      BCC      0x3a4 ; __aeabi_idiv + 52
        0x000003a0:    018b        ..      LSLS     r3,r1,#6
        0x000003a2:    1ac0        ..      SUBS     r0,r0,r3
        0x000003a4:    4152        RA      ADCS     r2,r2,r2
        0x000003a6:    0943        C.      LSRS     r3,r0,#5
        0x000003a8:    428b        .B      CMP      r3,r1
        0x000003aa:    d301        ..      BCC      0x3b0 ; __aeabi_idiv + 64
        0x000003ac:    014b        K.      LSLS     r3,r1,#5
        0x000003ae:    1ac0        ..      SUBS     r0,r0,r3
        0x000003b0:    4152        RA      ADCS     r2,r2,r2
        0x000003b2:    0903        ..      LSRS     r3,r0,#4
        0x000003b4:    428b        .B      CMP      r3,r1
        0x000003b6:    d301        ..      BCC      0x3bc ; __aeabi_idiv + 76
        0x000003b8:    010b        ..      LSLS     r3,r1,#4
        0x000003ba:    1ac0        ..      SUBS     r0,r0,r3
        0x000003bc:    4152        RA      ADCS     r2,r2,r2
        0x000003be:    08c3        ..      LSRS     r3,r0,#3
        0x000003c0:    428b        .B      CMP      r3,r1
        0x000003c2:    d301        ..      BCC      0x3c8 ; __aeabi_idiv + 88
        0x000003c4:    00cb        ..      LSLS     r3,r1,#3
        0x000003c6:    1ac0        ..      SUBS     r0,r0,r3
        0x000003c8:    4152        RA      ADCS     r2,r2,r2
        0x000003ca:    0883        ..      LSRS     r3,r0,#2
        0x000003cc:    428b        .B      CMP      r3,r1
        0x000003ce:    d301        ..      BCC      0x3d4 ; __aeabi_idiv + 100
        0x000003d0:    008b        ..      LSLS     r3,r1,#2
        0x000003d2:    1ac0        ..      SUBS     r0,r0,r3
        0x000003d4:    4152        RA      ADCS     r2,r2,r2
        0x000003d6:    0843        C.      LSRS     r3,r0,#1
        0x000003d8:    428b        .B      CMP      r3,r1
        0x000003da:    d301        ..      BCC      0x3e0 ; __aeabi_idiv + 112
        0x000003dc:    004b        K.      LSLS     r3,r1,#1
        0x000003de:    1ac0        ..      SUBS     r0,r0,r3
        0x000003e0:    4152        RA      ADCS     r2,r2,r2
        0x000003e2:    1a41        A.      SUBS     r1,r0,r1
        0x000003e4:    d200        ..      BCS      0x3e8 ; __aeabi_idiv + 120
        0x000003e6:    4601        .F      MOV      r1,r0
        0x000003e8:    4152        RA      ADCS     r2,r2,r2
        0x000003ea:    4610        .F      MOV      r0,r2
        0x000003ec:    4770        pG      BX       lr
        0x000003ee:    e05d        ].      B        0x4ac ; __aeabi_idiv + 316
        0x000003f0:    0fca        ..      LSRS     r2,r1,#31
        0x000003f2:    d000        ..      BEQ      0x3f6 ; __aeabi_idiv + 134
        0x000003f4:    4249        IB      RSBS     r1,r1,#0
        0x000003f6:    1003        ..      ASRS     r3,r0,#32
        0x000003f8:    d300        ..      BCC      0x3fc ; __aeabi_idiv + 140
        0x000003fa:    4240        @B      RSBS     r0,r0,#0
        0x000003fc:    4053        S@      EORS     r3,r3,r2
        0x000003fe:    2200        ."      MOVS     r2,#0
        0x00000400:    469c        .F      MOV      r12,r3
        0x00000402:    0903        ..      LSRS     r3,r0,#4
        0x00000404:    428b        .B      CMP      r3,r1
        0x00000406:    d32d        -.      BCC      0x464 ; __aeabi_idiv + 244
        0x00000408:    0a03        ..      LSRS     r3,r0,#8
        0x0000040a:    428b        .B      CMP      r3,r1
        0x0000040c:    d312        ..      BCC      0x434 ; __aeabi_idiv + 196
        0x0000040e:    22fc        ."      MOVS     r2,#0xfc
        0x00000410:    0189        ..      LSLS     r1,r1,#6
        0x00000412:    ba12        ..      REV      r2,r2
        0x00000414:    0a03        ..      LSRS     r3,r0,#8
        0x00000416:    428b        .B      CMP      r3,r1
        0x00000418:    d30c        ..      BCC      0x434 ; __aeabi_idiv + 196
        0x0000041a:    0189        ..      LSLS     r1,r1,#6
        0x0000041c:    1192        ..      ASRS     r2,r2,#6
        0x0000041e:    428b        .B      CMP      r3,r1
        0x00000420:    d308        ..      BCC      0x434 ; __aeabi_idiv + 196
        0x00000422:    0189        ..      LSLS     r1,r1,#6
        0x00000424:    1192        ..      ASRS     r2,r2,#6
        0x00000426:    428b        .B      CMP      r3,r1
        0x00000428:    d304        ..      BCC      0x434 ; __aeabi_idiv + 196
        0x0000042a:    0189        ..      LSLS     r1,r1,#6
        0x0000042c:    d03a        :.      BEQ      0x4a4 ; __aeabi_idiv + 308
        0x0000042e:    1192        ..      ASRS     r2,r2,#6
        0x00000430:    e000        ..      B        0x434 ; __aeabi_idiv + 196
        0x00000432:    0989        ..      LSRS     r1,r1,#6
        0x00000434:    09c3        ..      LSRS     r3,r0,#7
        0x00000436:    428b        .B      CMP      r3,r1
        0x00000438:    d301        ..      BCC      0x43e ; __aeabi_idiv + 206
        0x0000043a:    01cb        ..      LSLS     r3,r1,#7
        0x0000043c:    1ac0        ..      SUBS     r0,r0,r3
        0x0000043e:    4152        RA      ADCS     r2,r2,r2
        0x00000440:    0983        ..      LSRS     r3,r0,#6
        0x00000442:    428b        .B      CMP      r3,r1
        0x00000444:    d301        ..      BCC      0x44a ; __aeabi_idiv + 218
        0x00000446:    018b        ..      LSLS     r3,r1,#6
        0x00000448:    1ac0        ..      SUBS     r0,r0,r3
        0x0000044a:    4152        RA      ADCS     r2,r2,r2
        0x0000044c:    0943        C.      LSRS     r3,r0,#5
        0x0000044e:    428b        .B      CMP      r3,r1
        0x00000450:    d301        ..      BCC      0x456 ; __aeabi_idiv + 230
        0x00000452:    014b        K.      LSLS     r3,r1,#5
        0x00000454:    1ac0        ..      SUBS     r0,r0,r3
        0x00000456:    4152        RA      ADCS     r2,r2,r2
        0x00000458:    0903        ..      LSRS     r3,r0,#4
        0x0000045a:    428b        .B      CMP      r3,r1
        0x0000045c:    d301        ..      BCC      0x462 ; __aeabi_idiv + 242
        0x0000045e:    010b        ..      LSLS     r3,r1,#4
        0x00000460:    1ac0        ..      SUBS     r0,r0,r3
        0x00000462:    4152        RA      ADCS     r2,r2,r2
        0x00000464:    08c3        ..      LSRS     r3,r0,#3
        0x00000466:    428b        .B      CMP      r3,r1
        0x00000468:    d301        ..      BCC      0x46e ; __aeabi_idiv + 254
        0x0000046a:    00cb        ..      LSLS     r3,r1,#3
        0x0000046c:    1ac0        ..      SUBS     r0,r0,r3
        0x0000046e:    4152        RA      ADCS     r2,r2,r2
        0x00000470:    0883        ..      LSRS     r3,r0,#2
        0x00000472:    428b        .B      CMP      r3,r1
        0x00000474:    d301        ..      BCC      0x47a ; __aeabi_idiv + 266
        0x00000476:    008b        ..      LSLS     r3,r1,#2
        0x00000478:    1ac0        ..      SUBS     r0,r0,r3
        0x0000047a:    4152        RA      ADCS     r2,r2,r2
        0x0000047c:    d2d9        ..      BCS      0x432 ; __aeabi_idiv + 194
        0x0000047e:    0843        C.      LSRS     r3,r0,#1
        0x00000480:    428b        .B      CMP      r3,r1
        0x00000482:    d301        ..      BCC      0x488 ; __aeabi_idiv + 280
        0x00000484:    004b        K.      LSLS     r3,r1,#1
        0x00000486:    1ac0        ..      SUBS     r0,r0,r3
        0x00000488:    4152        RA      ADCS     r2,r2,r2
        0x0000048a:    1a41        A.      SUBS     r1,r0,r1
        0x0000048c:    d200        ..      BCS      0x490 ; __aeabi_idiv + 288
        0x0000048e:    4601        .F      MOV      r1,r0
        0x00000490:    4663        cF      MOV      r3,r12
        0x00000492:    4152        RA      ADCS     r2,r2,r2
        0x00000494:    105b        [.      ASRS     r3,r3,#1
        0x00000496:    4610        .F      MOV      r0,r2
        0x00000498:    d301        ..      BCC      0x49e ; __aeabi_idiv + 302
        0x0000049a:    4240        @B      RSBS     r0,r0,#0
        0x0000049c:    2b00        .+      CMP      r3,#0
        0x0000049e:    d500        ..      BPL      0x4a2 ; __aeabi_idiv + 306
        0x000004a0:    4249        IB      RSBS     r1,r1,#0
        0x000004a2:    4770        pG      BX       lr
        0x000004a4:    4663        cF      MOV      r3,r12
        0x000004a6:    105b        [.      ASRS     r3,r3,#1
        0x000004a8:    d300        ..      BCC      0x4ac ; __aeabi_idiv + 316
        0x000004aa:    4240        @B      RSBS     r0,r0,#0
        0x000004ac:    b501        ..      PUSH     {r0,lr}
        0x000004ae:    2000        .       MOVS     r0,#0
        0x000004b0:    46c0        .F      MOV      r8,r8
        0x000004b2:    46c0        .F      MOV      r8,r8
        0x000004b4:    bd02        ..      POP      {r1,pc}
    .text
    __use_two_region_memory
        0x000004b6:    4770        pG      BX       lr
    __rt_heap_escrow$2region
        0x000004b8:    4770        pG      BX       lr
    __rt_heap_expand$2region
        0x000004ba:    4770        pG      BX       lr
    .text
    __aeabi_d2f
    _d2f
        0x000004bc:    4602        .F      MOV      r2,r0
        0x000004be:    0fc8        ..      LSRS     r0,r1,#31
        0x000004c0:    07c0        ..      LSLS     r0,r0,#31
        0x000004c2:    4381        .C      BICS     r1,r1,r0
        0x000004c4:    004b        K.      LSLS     r3,r1,#1
        0x000004c6:    b530        0.      PUSH     {r4,r5,lr}
        0x000004c8:    404b        K@      EORS     r3,r3,r1
        0x000004ca:    005b        [.      LSLS     r3,r3,#1
        0x000004cc:    0d9b        ..      LSRS     r3,r3,#22
        0x000004ce:    d020         .      BEQ      0x512 ; __aeabi_d2f + 86
        0x000004d0:    2319        .#      MOVS     r3,#0x19
        0x000004d2:    06db        ..      LSLS     r3,r3,#27
        0x000004d4:    18c9        ..      ADDS     r1,r1,r3
        0x000004d6:    2301        .#      MOVS     r3,#1
        0x000004d8:    051b        ..      LSLS     r3,r3,#20
        0x000004da:    4299        .B      CMP      r1,r3
        0x000004dc:    db20         .      BLT      0x520 ; __aeabi_d2f + 100
        0x000004de:    2403        .$      MOVS     r4,#3
        0x000004e0:    07a4        ..      LSLS     r4,r4,#30
        0x000004e2:    2504        .%      MOVS     r5,#4
        0x000004e4:    4613        .F      MOV      r3,r2
        0x000004e6:    40ab        .@      LSLS     r3,r3,r5
        0x000004e8:    d30b        ..      BCC      0x502 ; __aeabi_d2f + 70
        0x000004ea:    2b00        .+      CMP      r3,#0
        0x000004ec:    d104        ..      BNE      0x4f8 ; __aeabi_d2f + 60
        0x000004ee:    06eb        ..      LSLS     r3,r5,#27
        0x000004f0:    4013        .@      ANDS     r3,r3,r2
        0x000004f2:    009b        ..      LSLS     r3,r3,#2
        0x000004f4:    191b        ..      ADDS     r3,r3,r4
        0x000004f6:    d404        ..      BMI      0x502 ; __aeabi_d2f + 70
        0x000004f8:    2401        .$      MOVS     r4,#1
        0x000004fa:    0764        d.      LSLS     r4,r4,#29
        0x000004fc:    2300        .#      MOVS     r3,#0
        0x000004fe:    1912        ..      ADDS     r2,r2,r4
        0x00000500:    4159        YA      ADCS     r1,r1,r3
        0x00000502:    23ff        .#      MOVS     r3,#0xff
        0x00000504:    051b        ..      LSLS     r3,r3,#20
        0x00000506:    4299        .B      CMP      r1,r3
        0x00000508:    d20b        ..      BCS      0x522 ; __aeabi_d2f + 102
        0x0000050a:    00c9        ..      LSLS     r1,r1,#3
        0x0000050c:    4301        .C      ORRS     r1,r1,r0
        0x0000050e:    0f50        P.      LSRS     r0,r2,#29
        0x00000510:    e009        ..      B        0x526 ; __aeabi_d2f + 106
        0x00000512:    02cb        ..      LSLS     r3,r1,#11
        0x00000514:    d504        ..      BPL      0x520 ; __aeabi_d2f + 100
        0x00000516:    4301        .C      ORRS     r1,r1,r0
        0x00000518:    0308        ..      LSLS     r0,r1,#12
        0x0000051a:    4302        .C      ORRS     r2,r2,r0
        0x0000051c:    d005        ..      BEQ      0x52a ; __aeabi_d2f + 110
        0x0000051e:    4805        .H      LDR      r0,[pc,#20] ; [0x534] = 0x7fc00000
        0x00000520:    bd30        0.      POP      {r4,r5,pc}
        0x00000522:    21ff        .!      MOVS     r1,#0xff
        0x00000524:    05c9        ..      LSLS     r1,r1,#23
        0x00000526:    4308        .C      ORRS     r0,r0,r1
        0x00000528:    bd30        0.      POP      {r4,r5,pc}
        0x0000052a:    4608        .F      MOV      r0,r1
        0x0000052c:    2107        .!      MOVS     r1,#7
        0x0000052e:    0509        ..      LSLS     r1,r1,#20
        0x00000530:    4388        .C      BICS     r0,r0,r1
        0x00000532:    bd30        0.      POP      {r4,r5,pc}
    $d
        0x00000534:    7fc00000    ....    DCD    2143289344
    $t
    .text
    __aeabi_dmul
    _dmul
        0x00000538:    b5f0        ..      PUSH     {r4-r7,lr}
        0x0000053a:    4c9d        .L      LDR      r4,[pc,#628] ; [0x7b0] = 0x7ff0000
        0x0000053c:    090d        ..      LSRS     r5,r1,#4
        0x0000053e:    4626        &F      MOV      r6,r4
        0x00000540:    46ac        .F      MOV      r12,r5
        0x00000542:    43ae        .C      BICS     r6,r6,r5
        0x00000544:    460d        .F      MOV      r5,r1
        0x00000546:    405d        ]@      EORS     r5,r5,r3
        0x00000548:    b089        ..      SUB      sp,sp,#0x24
        0x0000054a:    2e00        ..      CMP      r6,#0
        0x0000054c:    d07e        ~.      BEQ      0x64c ; __aeabi_dmul + 276
        0x0000054e:    091e        ..      LSRS     r6,r3,#4
        0x00000550:    4627        'F      MOV      r7,r4
        0x00000552:    43b7        .C      BICS     r7,r7,r6
        0x00000554:    d07a        z.      BEQ      0x64c ; __aeabi_dmul + 276
        0x00000556:    4667        gF      MOV      r7,r12
        0x00000558:    4027        '@      ANDS     r7,r7,r4
        0x0000055a:    0fed        ..      LSRS     r5,r5,#31
        0x0000055c:    433d        =C      ORRS     r5,r5,r7
        0x0000055e:    4026        &@      ANDS     r6,r6,r4
        0x00000560:    d075        u.      BEQ      0x64e ; __aeabi_dmul + 278
        0x00000562:    0124        $.      LSLS     r4,r4,#4
        0x00000564:    4221        !B      TST      r1,r4
        0x00000566:    d072        r.      BEQ      0x64e ; __aeabi_dmul + 278
        0x00000568:    1974        t.      ADDS     r4,r6,r5
        0x0000056a:    25ff        .%      MOVS     r5,#0xff
        0x0000056c:    04ad        ..      LSLS     r5,r5,#18
        0x0000056e:    1b64        d.      SUBS     r4,r4,r5
        0x00000570:    9404        ..      STR      r4,[sp,#0x10]
        0x00000572:    02cc        ..      LSLS     r4,r1,#11
        0x00000574:    02d9        ..      LSLS     r1,r3,#11
        0x00000576:    2301        .#      MOVS     r3,#1
        0x00000578:    051b        ..      LSLS     r3,r3,#20
        0x0000057a:    0ae4        ..      LSRS     r4,r4,#11
        0x0000057c:    0ac9        ..      LSRS     r1,r1,#11
        0x0000057e:    431c        .C      ORRS     r4,r4,r3
        0x00000580:    4319        .C      ORRS     r1,r1,r3
        0x00000582:    0124        $.      LSLS     r4,r4,#4
        0x00000584:    0f03        ..      LSRS     r3,r0,#28
        0x00000586:    431c        .C      ORRS     r4,r4,r3
        0x00000588:    010b        ..      LSLS     r3,r1,#4
        0x0000058a:    0105        ..      LSLS     r5,r0,#4
        0x0000058c:    0f11        ..      LSRS     r1,r2,#28
        0x0000058e:    430b        .C      ORRS     r3,r3,r1
        0x00000590:    0ba0        ..      LSRS     r0,r4,#14
        0x00000592:    0381        ..      LSLS     r1,r0,#14
        0x00000594:    092d        -.      LSRS     r5,r5,#4
        0x00000596:    0116        ..      LSLS     r6,r2,#4
        0x00000598:    438c        .C      BICS     r4,r4,r1
        0x0000059a:    0ba9        ..      LSRS     r1,r5,#14
        0x0000059c:    038a        ..      LSLS     r2,r1,#14
        0x0000059e:    4395        .C      BICS     r5,r5,r2
        0x000005a0:    0b9a        ..      LSRS     r2,r3,#14
        0x000005a2:    0397        ..      LSLS     r7,r2,#14
        0x000005a4:    43bb        .C      BICS     r3,r3,r7
        0x000005a6:    0936        6.      LSRS     r6,r6,#4
        0x000005a8:    469c        .F      MOV      r12,r3
        0x000005aa:    0bb3        ..      LSRS     r3,r6,#14
        0x000005ac:    039f        ..      LSLS     r7,r3,#14
        0x000005ae:    43be        .C      BICS     r6,r6,r7
        0x000005b0:    460f        .F      MOV      r7,r1
        0x000005b2:    435f        _C      MULS     r7,r3,r7
        0x000005b4:    9703        ..      STR      r7,[sp,#0xc]
        0x000005b6:    462f        /F      MOV      r7,r5
        0x000005b8:    4377        wC      MULS     r7,r6,r7
        0x000005ba:    9602        ..      STR      r6,[sp,#8]
        0x000005bc:    194e        N.      ADDS     r6,r1,r5
        0x000005be:    46be        .F      MOV      lr,r7
        0x000005c0:    9607        ..      STR      r6,[sp,#0x1c]
        0x000005c2:    9f02        ..      LDR      r7,[sp,#8]
        0x000005c4:    19df        ..      ADDS     r7,r3,r7
        0x000005c6:    437e        ~C      MULS     r6,r7,r6
        0x000005c8:    9705        ..      STR      r7,[sp,#0x14]
        0x000005ca:    9f03        ..      LDR      r7,[sp,#0xc]
        0x000005cc:    1bf7        ..      SUBS     r7,r6,r7
        0x000005ce:    4676        vF      MOV      r6,lr
        0x000005d0:    1bbe        ..      SUBS     r6,r7,r6
        0x000005d2:    4677        wF      MOV      r7,lr
        0x000005d4:    013f        ?.      LSLS     r7,r7,#4
        0x000005d6:    9700        ..      STR      r7,[sp,#0]
        0x000005d8:    9601        ..      STR      r6,[sp,#4]
        0x000005da:    9f03        ..      LDR      r7,[sp,#0xc]
        0x000005dc:    0bb6        ..      LSRS     r6,r6,#14
        0x000005de:    19f6        ..      ADDS     r6,r6,r7
        0x000005e0:    46b6        .F      MOV      lr,r6
        0x000005e2:    9e01        ..      LDR      r6,[sp,#4]
        0x000005e4:    9f00        ..      LDR      r7,[sp,#0]
        0x000005e6:    04b6        ..      LSLS     r6,r6,#18
        0x000005e8:    19bf        ..      ADDS     r7,r7,r6
        0x000005ea:    d302        ..      BCC      0x5f2 ; __aeabi_dmul + 186
        0x000005ec:    4676        vF      MOV      r6,lr
        0x000005ee:    1c76        v.      ADDS     r6,r6,#1
        0x000005f0:    46b6        .F      MOV      lr,r6
        0x000005f2:    4676        vF      MOV      r6,lr
        0x000005f4:    0076        v.      LSLS     r6,r6,#1
        0x000005f6:    2f00        ./      CMP      r7,#0
        0x000005f8:    d001        ..      BEQ      0x5fe ; __aeabi_dmul + 198
        0x000005fa:    2701        .'      MOVS     r7,#1
        0x000005fc:    433e        >C      ORRS     r6,r6,r7
        0x000005fe:    4667        gF      MOV      r7,r12
        0x00000600:    437d        }C      MULS     r5,r7,r5
        0x00000602:    9506        ..      STR      r5,[sp,#0x18]
        0x00000604:    9d02        ..      LDR      r5,[sp,#8]
        0x00000606:    4627        'F      MOV      r7,r4
        0x00000608:    436f        oC      MULS     r7,r5,r7
        0x0000060a:    9700        ..      STR      r7,[sp,#0]
        0x0000060c:    007f        ..      LSLS     r7,r7,#1
        0x0000060e:    9d06        ..      LDR      r5,[sp,#0x18]
        0x00000610:    19be        ..      ADDS     r6,r7,r6
        0x00000612:    006f        o.      LSLS     r7,r5,#1
        0x00000614:    19bd        ..      ADDS     r5,r7,r6
        0x00000616:    4666        fF      MOV      r6,r12
        0x00000618:    1996        ..      ADDS     r6,r2,r6
        0x0000061a:    9f07        ..      LDR      r7,[sp,#0x1c]
        0x0000061c:    46ae        .F      MOV      lr,r5
        0x0000061e:    4377        wC      MULS     r7,r6,r7
        0x00000620:    9d06        ..      LDR      r5,[sp,#0x18]
        0x00000622:    9603        ..      STR      r6,[sp,#0xc]
        0x00000624:    1b7d        }.      SUBS     r5,r7,r5
        0x00000626:    9501        ..      STR      r5,[sp,#4]
        0x00000628:    1906        ..      ADDS     r6,r0,r4
        0x0000062a:    9d05        ..      LDR      r5,[sp,#0x14]
        0x0000062c:    9f00        ..      LDR      r7,[sp,#0]
        0x0000062e:    4375        uC      MULS     r5,r6,r5
        0x00000630:    9602        ..      STR      r6,[sp,#8]
        0x00000632:    1bee        ..      SUBS     r6,r5,r7
        0x00000634:    9d01        ..      LDR      r5,[sp,#4]
        0x00000636:    4351        QC      MULS     r1,r2,r1
        0x00000638:    1a6d        m.      SUBS     r5,r5,r1
        0x0000063a:    4607        .F      MOV      r7,r0
        0x0000063c:    435f        _C      MULS     r7,r3,r7
        0x0000063e:    1bf3        ..      SUBS     r3,r6,r7
        0x00000640:    9501        ..      STR      r5,[sp,#4]
        0x00000642:    9300        ..      STR      r3,[sp,#0]
        0x00000644:    4675        uF      MOV      r5,lr
        0x00000646:    06eb        ..      LSLS     r3,r5,#27
        0x00000648:    d006        ..      BEQ      0x658 ; __aeabi_dmul + 288
        0x0000064a:    e001        ..      B        0x650 ; __aeabi_dmul + 280
        0x0000064c:    e091        ..      B        0x772 ; __aeabi_dmul + 570
        0x0000064e:    e08d        ..      B        0x76c ; __aeabi_dmul + 564
        0x00000650:    096b        k.      LSRS     r3,r5,#5
        0x00000652:    2501        .%      MOVS     r5,#1
        0x00000654:    432b        +C      ORRS     r3,r3,r5
        0x00000656:    e000        ..      B        0x65a ; __aeabi_dmul + 290
        0x00000658:    096b        k.      LSRS     r3,r5,#5
        0x0000065a:    2600        .&      MOVS     r6,#0
        0x0000065c:    4635        5F      MOV      r5,r6
        0x0000065e:    46b6        .F      MOV      lr,r6
        0x00000660:    0a0e        ..      LSRS     r6,r1,#8
        0x00000662:    062d        -.      LSLS     r5,r5,#24
        0x00000664:    0609        ..      LSLS     r1,r1,#24
        0x00000666:    4335        5C      ORRS     r5,r5,r6
        0x00000668:    18cb        ..      ADDS     r3,r1,r3
        0x0000066a:    4676        vF      MOV      r6,lr
        0x0000066c:    4175        uA      ADCS     r5,r5,r6
        0x0000066e:    46ae        .F      MOV      lr,r5
        0x00000670:    2100        .!      MOVS     r1,#0
        0x00000672:    0a3d        =.      LSRS     r5,r7,#8
        0x00000674:    0609        ..      LSLS     r1,r1,#24
        0x00000676:    063e        >.      LSLS     r6,r7,#24
        0x00000678:    4329        )C      ORRS     r1,r1,r5
        0x0000067a:    18f6        ..      ADDS     r6,r6,r3
        0x0000067c:    4675        uF      MOV      r5,lr
        0x0000067e:    4169        iA      ADCS     r1,r1,r5
        0x00000680:    46b6        .F      MOV      lr,r6
        0x00000682:    9b01        ..      LDR      r3,[sp,#4]
        0x00000684:    2600        .&      MOVS     r6,#0
        0x00000686:    0d9d        ..      LSRS     r5,r3,#22
        0x00000688:    02b7        ..      LSLS     r7,r6,#10
        0x0000068a:    432f        /C      ORRS     r7,r7,r5
        0x0000068c:    029b        ..      LSLS     r3,r3,#10
        0x0000068e:    4676        vF      MOV      r6,lr
        0x00000690:    199b        ..      ADDS     r3,r3,r6
        0x00000692:    414f        OA      ADCS     r7,r7,r1
        0x00000694:    9900        ..      LDR      r1,[sp,#0]
        0x00000696:    2500        .%      MOVS     r5,#0
        0x00000698:    0d8e        ..      LSRS     r6,r1,#22
        0x0000069a:    02ad        ..      LSLS     r5,r5,#10
        0x0000069c:    0289        ..      LSLS     r1,r1,#10
        0x0000069e:    18c9        ..      ADDS     r1,r1,r3
        0x000006a0:    4335        5C      ORRS     r5,r5,r6
        0x000006a2:    417d        }A      ADCS     r5,r5,r7
        0x000006a4:    4350        PC      MULS     r0,r2,r0
        0x000006a6:    4662        bF      MOV      r2,r12
        0x000006a8:    4354        TC      MULS     r4,r2,r4
        0x000006aa:    9b03        ..      LDR      r3,[sp,#0xc]
        0x000006ac:    9a02        ..      LDR      r2,[sp,#8]
        0x000006ae:    435a        ZC      MULS     r2,r3,r2
        0x000006b0:    1a12        ..      SUBS     r2,r2,r0
        0x000006b2:    1b16        ..      SUBS     r6,r2,r4
        0x000006b4:    2200        ."      MOVS     r2,#0
        0x000006b6:    0eb7        ..      LSRS     r7,r6,#26
        0x000006b8:    0193        ..      LSLS     r3,r2,#6
        0x000006ba:    01b6        ..      LSLS     r6,r6,#6
        0x000006bc:    1975        u.      ADDS     r5,r6,r5
        0x000006be:    433b        ;C      ORRS     r3,r3,r7
        0x000006c0:    4153        SA      ADCS     r3,r3,r2
        0x000006c2:    0b07        ..      LSRS     r7,r0,#12
        0x000006c4:    0512        ..      LSLS     r2,r2,#20
        0x000006c6:    0500        ..      LSLS     r0,r0,#20
        0x000006c8:    1945        E.      ADDS     r5,r0,r5
        0x000006ca:    433a        :C      ORRS     r2,r2,r7
        0x000006cc:    415a        ZA      ADCS     r2,r2,r3
        0x000006ce:    2000        .       MOVS     r0,#0
        0x000006d0:    0603        ..      LSLS     r3,r0,#24
        0x000006d2:    0a27        '.      LSRS     r7,r4,#8
        0x000006d4:    0620         .      LSLS     r0,r4,#24
        0x000006d6:    433b        ;C      ORRS     r3,r3,r7
        0x000006d8:    1844        D.      ADDS     r4,r0,r1
        0x000006da:    2614        .&      MOVS     r6,#0x14
        0x000006dc:    416b        kA      ADCS     r3,r3,r5
        0x000006de:    42ab        .B      CMP      r3,r5
        0x000006e0:    d200        ..      BCS      0x6e4 ; __aeabi_dmul + 428
        0x000006e2:    1c52        R.      ADDS     r2,r2,#1
        0x000006e4:    2001        .       MOVS     r0,#1
        0x000006e6:    0240        @.      LSLS     r0,r0,#9
        0x000006e8:    4282        .B      CMP      r2,r0
        0x000006ea:    d303        ..      BCC      0x6f4 ; __aeabi_dmul + 444
        0x000006ec:    2615        .&      MOVS     r6,#0x15
        0x000006ee:    2102        .!      MOVS     r1,#2
        0x000006f0:    43c9        .C      MVNS     r1,r1
        0x000006f2:    e001        ..      B        0x6f8 ; __aeabi_dmul + 448
        0x000006f4:    2103        .!      MOVS     r1,#3
        0x000006f6:    43c9        .C      MVNS     r1,r1
        0x000006f8:    2020                MOVS     r0,#0x20
        0x000006fa:    1b85        ..      SUBS     r5,r0,r6
        0x000006fc:    40aa        .@      LSLS     r2,r2,r5
        0x000006fe:    461f        .F      MOV      r7,r3
        0x00000700:    40af        .@      LSLS     r7,r7,r5
        0x00000702:    40f3        .@      LSRS     r3,r3,r6
        0x00000704:    4313        .C      ORRS     r3,r3,r2
        0x00000706:    4620         F      MOV      r0,r4
        0x00000708:    9a04        ..      LDR      r2,[sp,#0x10]
        0x0000070a:    40f0        .@      LSRS     r0,r0,r6
        0x0000070c:    1412        ..      ASRS     r2,r2,#16
        0x0000070e:    1889        ..      ADDS     r1,r1,r2
        0x00000710:    0509        ..      LSLS     r1,r1,#20
        0x00000712:    185a        Z.      ADDS     r2,r3,r1
        0x00000714:    9904        ..      LDR      r1,[sp,#0x10]
        0x00000716:    4338        8C      ORRS     r0,r0,r7
        0x00000718:    07c9        ..      LSLS     r1,r1,#31
        0x0000071a:    4051        Q@      EORS     r1,r1,r2
        0x0000071c:    40ac        .@      LSLS     r4,r4,r5
        0x0000071e:    d009        ..      BEQ      0x734 ; __aeabi_dmul + 508
        0x00000720:    2301        .#      MOVS     r3,#1
        0x00000722:    409c        .@      LSLS     r4,r4,r3
        0x00000724:    d306        ..      BCC      0x734 ; __aeabi_dmul + 508
        0x00000726:    2300        .#      MOVS     r3,#0
        0x00000728:    1c40        @.      ADDS     r0,r0,#1
        0x0000072a:    4159        YA      ADCS     r1,r1,r3
        0x0000072c:    2c00        .,      CMP      r4,#0
        0x0000072e:    d101        ..      BNE      0x734 ; __aeabi_dmul + 508
        0x00000730:    0840        @.      LSRS     r0,r0,#1
        0x00000732:    0040        @.      LSLS     r0,r0,#1
        0x00000734:    4b1f        .K      LDR      r3,[pc,#124] ; [0x7b4] = 0x7ff00000
        0x00000736:    2a00        .*      CMP      r2,#0
        0x00000738:    db03        ..      BLT      0x742 ; __aeabi_dmul + 522
        0x0000073a:    421a        .B      TST      r2,r3
        0x0000073c:    d001        ..      BEQ      0x742 ; __aeabi_dmul + 522
        0x0000073e:    438b        .C      BICS     r3,r3,r1
        0x00000740:    d112        ..      BNE      0x768 ; __aeabi_dmul + 560
        0x00000742:    2201        ."      MOVS     r2,#1
        0x00000744:    9804        ..      LDR      r0,[sp,#0x10]
        0x00000746:    0692        ..      LSLS     r2,r2,#26
        0x00000748:    4290        .B      CMP      r0,r2
        0x0000074a:    db07        ..      BLT      0x75c ; __aeabi_dmul + 548
        0x0000074c:    2005        .       MOVS     r0,#5
        0x0000074e:    0740        @.      LSLS     r0,r0,#29
        0x00000750:    1809        ..      ADDS     r1,r1,r0
        0x00000752:    4819        .H      LDR      r0,[pc,#100] ; [0x7b8] = 0x7fffffff
        0x00000754:    4301        .C      ORRS     r1,r1,r0
        0x00000756:    12c0        ..      ASRS     r0,r0,#11
        0x00000758:    4041        A@      EORS     r1,r1,r0
        0x0000075a:    e004        ..      B        0x766 ; __aeabi_dmul + 558
        0x0000075c:    2003        .       MOVS     r0,#3
        0x0000075e:    0740        @.      LSLS     r0,r0,#29
        0x00000760:    1808        ..      ADDS     r0,r1,r0
        0x00000762:    0fc1        ..      LSRS     r1,r0,#31
        0x00000764:    07c9        ..      LSLS     r1,r1,#31
        0x00000766:    2000        .       MOVS     r0,#0
        0x00000768:    b009        ..      ADD      sp,sp,#0x24
        0x0000076a:    bdf0        ..      POP      {r4-r7,pc}
        0x0000076c:    2000        .       MOVS     r0,#0
        0x0000076e:    07e9        ..      LSLS     r1,r5,#31
        0x00000770:    e7fa        ..      B        0x768 ; __aeabi_dmul + 560
        0x00000772:    1806        ..      ADDS     r6,r0,r0
        0x00000774:    460c        .F      MOV      r4,r1
        0x00000776:    414c        LA      ADCS     r4,r4,r1
        0x00000778:    4810        .H      LDR      r0,[pc,#64] ; [0x7bc] = 0xffe00000
        0x0000077a:    4276        vB      RSBS     r6,r6,#0
        0x0000077c:    41a0        .A      SBCS     r0,r0,r4
        0x0000077e:    d314        ..      BCC      0x7aa ; __aeabi_dmul + 626
        0x00000780:    1894        ..      ADDS     r4,r2,r2
        0x00000782:    461a        .F      MOV      r2,r3
        0x00000784:    415a        ZA      ADCS     r2,r2,r3
        0x00000786:    480d        .H      LDR      r0,[pc,#52] ; [0x7bc] = 0xffe00000
        0x00000788:    4264        dB      RSBS     r4,r4,#0
        0x0000078a:    4190        .A      SBCS     r0,r0,r2
        0x0000078c:    d30d        ..      BCC      0x7aa ; __aeabi_dmul + 626
        0x0000078e:    2001        .       MOVS     r0,#1
        0x00000790:    0049        I.      LSLS     r1,r1,#1
        0x00000792:    0540        @.      LSLS     r0,r0,#21
        0x00000794:    4281        .B      CMP      r1,r0
        0x00000796:    d308        ..      BCC      0x7aa ; __aeabi_dmul + 626
        0x00000798:    0059        Y.      LSLS     r1,r3,#1
        0x0000079a:    4281        .B      CMP      r1,r0
        0x0000079c:    d305        ..      BCC      0x7aa ; __aeabi_dmul + 626
        0x0000079e:    0fe9        ..      LSRS     r1,r5,#31
        0x000007a0:    4a04        .J      LDR      r2,[pc,#16] ; [0x7b4] = 0x7ff00000
        0x000007a2:    07c9        ..      LSLS     r1,r1,#31
        0x000007a4:    2000        .       MOVS     r0,#0
        0x000007a6:    4311        .C      ORRS     r1,r1,r2
        0x000007a8:    e7de        ..      B        0x768 ; __aeabi_dmul + 560
        0x000007aa:    2000        .       MOVS     r0,#0
        0x000007ac:    4904        .I      LDR      r1,[pc,#16] ; [0x7c0] = 0x7ff80000
        0x000007ae:    e7db        ..      B        0x768 ; __aeabi_dmul + 560
    $d
        0x000007b0:    07ff0000    ....    DCD    134152192
        0x000007b4:    7ff00000    ....    DCD    2146435072
        0x000007b8:    7fffffff    ....    DCD    2147483647
        0x000007bc:    ffe00000    ....    DCD    4292870144
        0x000007c0:    7ff80000    ....    DCD    2146959360
    $t
    .text
    __aeabi_f2d
    _f2d
        0x000007c4:    2101        .!      MOVS     r1,#1
        0x000007c6:    05c9        ..      LSLS     r1,r1,#23
        0x000007c8:    1841        A.      ADDS     r1,r0,r1
        0x000007ca:    004a        J.      LSLS     r2,r1,#1
        0x000007cc:    0e52        R.      LSRS     r2,r2,#25
        0x000007ce:    d00b        ..      BEQ      0x7e8 ; __aeabi_f2d + 36
        0x000007d0:    10c1        ..      ASRS     r1,r0,#3
        0x000007d2:    2207        ."      MOVS     r2,#7
        0x000007d4:    06d2        ..      LSLS     r2,r2,#27
        0x000007d6:    1889        ..      ADDS     r1,r1,r2
        0x000007d8:    0740        @.      LSLS     r0,r0,#29
        0x000007da:    4252        RB      RSBS     r2,r2,#0
        0x000007dc:    188a        ..      ADDS     r2,r1,r2
        0x000007de:    d502        ..      BPL      0x7e6 ; __aeabi_f2d + 34
        0x000007e0:    2209        ."      MOVS     r2,#9
        0x000007e2:    0712        ..      LSLS     r2,r2,#28
        0x000007e4:    1889        ..      ADDS     r1,r1,r2
        0x000007e6:    4770        pG      BX       lr
        0x000007e8:    0209        ..      LSLS     r1,r1,#8
        0x000007ea:    d506        ..      BPL      0x7fa ; __aeabi_f2d + 54
        0x000007ec:    4601        .F      MOV      r1,r0
        0x000007ee:    0040        @.      LSLS     r0,r0,#1
        0x000007f0:    d0f9        ..      BEQ      0x7e6 ; __aeabi_f2d + 34
        0x000007f2:    0fc9        ..      LSRS     r1,r1,#31
        0x000007f4:    07c9        ..      LSLS     r1,r1,#31
        0x000007f6:    2000        .       MOVS     r0,#0
        0x000007f8:    4770        pG      BX       lr
        0x000007fa:    0242        B.      LSLS     r2,r0,#9
        0x000007fc:    d002        ..      BEQ      0x804 ; __aeabi_f2d + 64
        0x000007fe:    2000        .       MOVS     r0,#0
        0x00000800:    4903        .I      LDR      r1,[pc,#12] ; [0x810] = 0x7ff80000
        0x00000802:    4770        pG      BX       lr
        0x00000804:    2107        .!      MOVS     r1,#7
        0x00000806:    0509        ..      LSLS     r1,r1,#20
        0x00000808:    4301        .C      ORRS     r1,r1,r0
        0x0000080a:    4610        .F      MOV      r0,r2
        0x0000080c:    4770        pG      BX       lr
    $d
        0x0000080e:    0000        ..      DCW    0
        0x00000810:    7ff80000    ....    DCD    2146959360
    $t
    .text
    __aeabi_f2iz
    _ffix
        0x00000814:    b510        ..      PUSH     {r4,lr}
        0x00000816:    4602        .F      MOV      r2,r0
        0x00000818:    249e        .$      MOVS     r4,#0x9e
        0x0000081a:    0200        ..      LSLS     r0,r0,#8
        0x0000081c:    15d1        ..      ASRS     r1,r2,#23
        0x0000081e:    07a3        ..      LSLS     r3,r4,#30
        0x00000820:    2900        .)      CMP      r1,#0
        0x00000822:    d002        ..      BEQ      0x82a ; __aeabi_f2iz + 22
        0x00000824:    4318        .C      ORRS     r0,r0,r3
        0x00000826:    2900        .)      CMP      r1,#0
        0x00000828:    db04        ..      BLT      0x834 ; __aeabi_f2iz + 32
        0x0000082a:    1a61        a.      SUBS     r1,r4,r1
        0x0000082c:    2900        .)      CMP      r1,#0
        0x0000082e:    dd0c        ..      BLE      0x84a ; __aeabi_f2iz + 54
        0x00000830:    40c8        .@      LSRS     r0,r0,r1
        0x00000832:    bd10        ..      POP      {r4,pc}
        0x00000834:    0609        ..      LSLS     r1,r1,#24
        0x00000836:    0e09        ..      LSRS     r1,r1,#24
        0x00000838:    d101        ..      BNE      0x83e ; __aeabi_f2iz + 42
        0x0000083a:    0040        @.      LSLS     r0,r0,#1
        0x0000083c:    0840        @.      LSRS     r0,r0,#1
        0x0000083e:    1a61        a.      SUBS     r1,r4,r1
        0x00000840:    d403        ..      BMI      0x84a ; __aeabi_f2iz + 54
        0x00000842:    40c8        .@      LSRS     r0,r0,r1
        0x00000844:    4240        @B      RSBS     r0,r0,#0
        0x00000846:    2800        .(      CMP      r0,#0
        0x00000848:    ddf3        ..      BLE      0x832 ; __aeabi_f2iz + 30
        0x0000084a:    21ff        .!      MOVS     r1,#0xff
        0x0000084c:    0050        P.      LSLS     r0,r2,#1
        0x0000084e:    0609        ..      LSLS     r1,r1,#24
        0x00000850:    4288        .B      CMP      r0,r1
        0x00000852:    d901        ..      BLS      0x858 ; __aeabi_f2iz + 68
        0x00000854:    2000        .       MOVS     r0,#0
        0x00000856:    bd10        ..      POP      {r4,pc}
        0x00000858:    17d0        ..      ASRS     r0,r2,#31
        0x0000085a:    43c0        .C      MVNS     r0,r0
        0x0000085c:    4058        X@      EORS     r0,r0,r3
        0x0000085e:    bd10        ..      POP      {r4,pc}
    .text
    _printf_int_common
        0x00000860:    b5ff        ..      PUSH     {r0-r7,lr}
        0x00000862:    4604        .F      MOV      r4,r0
        0x00000864:    460d        .F      MOV      r5,r1
        0x00000866:    b081        ..      SUB      sp,sp,#4
        0x00000868:    3024        $0      ADDS     r0,r0,#0x24
        0x0000086a:    9000        ..      STR      r0,[sp,#0]
        0x0000086c:    6821        !h      LDR      r1,[r4,#0]
        0x0000086e:    0688        ..      LSLS     r0,r1,#26
        0x00000870:    d504        ..      BPL      0x87c ; _printf_int_common + 28
        0x00000872:    2210        ."      MOVS     r2,#0x10
        0x00000874:    69e0        .i      LDR      r0,[r4,#0x1c]
        0x00000876:    4391        .C      BICS     r1,r1,r2
        0x00000878:    6021        !`      STR      r1,[r4,#0]
        0x0000087a:    e000        ..      B        0x87e ; _printf_int_common + 30
        0x0000087c:    2001        .       MOVS     r0,#1
        0x0000087e:    2700        .'      MOVS     r7,#0
        0x00000880:    42a8        .B      CMP      r0,r5
        0x00000882:    dd00        ..      BLE      0x886 ; _printf_int_common + 38
        0x00000884:    1b47        G.      SUBS     r7,r0,r5
        0x00000886:    9804        ..      LDR      r0,[sp,#0x10]
        0x00000888:    69a1        .i      LDR      r1,[r4,#0x18]
        0x0000088a:    197a        z.      ADDS     r2,r7,r5
        0x0000088c:    1810        ..      ADDS     r0,r2,r0
        0x0000088e:    1a08        ..      SUBS     r0,r1,r0
        0x00000890:    61a0        .a      STR      r0,[r4,#0x18]
        0x00000892:    6820         h      LDR      r0,[r4,#0]
        0x00000894:    06c0        ..      LSLS     r0,r0,#27
        0x00000896:    d402        ..      BMI      0x89e ; _printf_int_common + 62
        0x00000898:    4620         F      MOV      r0,r4
        0x0000089a:    46c0        .F      MOV      r8,r8
        0x0000089c:    46c0        .F      MOV      r8,r8
        0x0000089e:    2600        .&      MOVS     r6,#0
        0x000008a0:    e008        ..      B        0x8b4 ; _printf_int_common + 84
        0x000008a2:    9803        ..      LDR      r0,[sp,#0xc]
        0x000008a4:    6862        bh      LDR      r2,[r4,#4]
        0x000008a6:    68a1        .h      LDR      r1,[r4,#8]
        0x000008a8:    5d80        .]      LDRB     r0,[r0,r6]
        0x000008aa:    4790        .G      BLX      r2
        0x000008ac:    6a20         j      LDR      r0,[r4,#0x20]
        0x000008ae:    1c40        @.      ADDS     r0,r0,#1
        0x000008b0:    1c76        v.      ADDS     r6,r6,#1
        0x000008b2:    6220         b      STR      r0,[r4,#0x20]
        0x000008b4:    9804        ..      LDR      r0,[sp,#0x10]
        0x000008b6:    4286        .B      CMP      r6,r0
        0x000008b8:    dbf3        ..      BLT      0x8a2 ; _printf_int_common + 66
        0x000008ba:    6820         h      LDR      r0,[r4,#0]
        0x000008bc:    06c0        ..      LSLS     r0,r0,#27
        0x000008be:    d50a        ..      BPL      0x8d6 ; _printf_int_common + 118
        0x000008c0:    4620         F      MOV      r0,r4
        0x000008c2:    46c0        .F      MOV      r8,r8
        0x000008c4:    46c0        .F      MOV      r8,r8
        0x000008c6:    e006        ..      B        0x8d6 ; _printf_int_common + 118
        0x000008c8:    6862        bh      LDR      r2,[r4,#4]
        0x000008ca:    68a1        .h      LDR      r1,[r4,#8]
        0x000008cc:    2030        0       MOVS     r0,#0x30
        0x000008ce:    4790        .G      BLX      r2
        0x000008d0:    6a20         j      LDR      r0,[r4,#0x20]
        0x000008d2:    1c40        @.      ADDS     r0,r0,#1
        0x000008d4:    6220         b      STR      r0,[r4,#0x20]
        0x000008d6:    4638        8F      MOV      r0,r7
        0x000008d8:    1e7f        ..      SUBS     r7,r7,#1
        0x000008da:    2800        .(      CMP      r0,#0
        0x000008dc:    dcf4        ..      BGT      0x8c8 ; _printf_int_common + 104
        0x000008de:    e007        ..      B        0x8f0 ; _printf_int_common + 144
        0x000008e0:    9800        ..      LDR      r0,[sp,#0]
        0x000008e2:    6862        bh      LDR      r2,[r4,#4]
        0x000008e4:    68a1        .h      LDR      r1,[r4,#8]
        0x000008e6:    5d40        @]      LDRB     r0,[r0,r5]
        0x000008e8:    4790        .G      BLX      r2
        0x000008ea:    6a20         j      LDR      r0,[r4,#0x20]
        0x000008ec:    1c40        @.      ADDS     r0,r0,#1
        0x000008ee:    6220         b      STR      r0,[r4,#0x20]
        0x000008f0:    4628        (F      MOV      r0,r5
        0x000008f2:    1e6d        m.      SUBS     r5,r5,#1
        0x000008f4:    2800        .(      CMP      r0,#0
        0x000008f6:    dcf3        ..      BGT      0x8e0 ; _printf_int_common + 128
        0x000008f8:    4620         F      MOV      r0,r4
        0x000008fa:    46c0        .F      MOV      r8,r8
        0x000008fc:    46c0        .F      MOV      r8,r8
        0x000008fe:    6821        !h      LDR      r1,[r4,#0]
        0x00000900:    2002        .       MOVS     r0,#2
        0x00000902:    0609        ..      LSLS     r1,r1,#24
        0x00000904:    d400        ..      BMI      0x908 ; _printf_int_common + 168
        0x00000906:    2001        .       MOVS     r0,#1
        0x00000908:    b005        ..      ADD      sp,sp,#0x14
        0x0000090a:    bdf0        ..      POP      {r4-r7,pc}
    .text
    _printf_input_char
        0x0000090c:    6901        .i      LDR      r1,[r0,#0x10]
        0x0000090e:    1c4a        J.      ADDS     r2,r1,#1
        0x00000910:    6102        .a      STR      r2,[r0,#0x10]
        0x00000912:    7808        .x      LDRB     r0,[r1,#0]
        0x00000914:    4770        pG      BX       lr
    _printf_char_common
        0x00000916:    b500        ..      PUSH     {lr}
        0x00000918:    b08f        ..      SUB      sp,sp,#0x3c
        0x0000091a:    9102        ..      STR      r1,[sp,#8]
        0x0000091c:    2100        .!      MOVS     r1,#0
        0x0000091e:    9105        ..      STR      r1,[sp,#0x14]
        0x00000920:    4905        .I      LDR      r1,[pc,#20] ; [0x938] = 0xffffffe5
        0x00000922:    9301        ..      STR      r3,[sp,#4]
        0x00000924:    4479        yD      ADD      r1,r1,pc
        0x00000926:    9103        ..      STR      r1,[sp,#0xc]
        0x00000928:    4611        .F      MOV      r1,r2
        0x0000092a:    9004        ..      STR      r0,[sp,#0x10]
        0x0000092c:    4668        hF      MOV      r0,sp
        0x0000092e:    f7fffc87    ....    BL       __printf ; 0x240
        0x00000932:    b00f        ..      ADD      sp,sp,#0x3c
        0x00000934:    bd00        ..      POP      {pc}
    $d
        0x00000936:    0000        ..      DCW    0
        0x00000938:    ffffffe5    ....    DCD    4294967269
    $t
    .text
    _sputc
        0x0000093c:    680a        .h      LDR      r2,[r1,#0]
        0x0000093e:    7010        .p      STRB     r0,[r2,#0]
        0x00000940:    1c52        R.      ADDS     r2,r2,#1
        0x00000942:    600a        .`      STR      r2,[r1,#0]
        0x00000944:    4770        pG      BX       lr
    .text
    __rt_udiv10
        0x00000946:    4601        .F      MOV      r1,r0
        0x00000948:    0880        ..      LSRS     r0,r0,#2
        0x0000094a:    1a08        ..      SUBS     r0,r1,r0
        0x0000094c:    0902        ..      LSRS     r2,r0,#4
        0x0000094e:    1810        ..      ADDS     r0,r2,r0
        0x00000950:    0a02        ..      LSRS     r2,r0,#8
        0x00000952:    1810        ..      ADDS     r0,r2,r0
        0x00000954:    0c02        ..      LSRS     r2,r0,#16
        0x00000956:    1810        ..      ADDS     r0,r2,r0
        0x00000958:    08c0        ..      LSRS     r0,r0,#3
        0x0000095a:    0082        ..      LSLS     r2,r0,#2
        0x0000095c:    1812        ..      ADDS     r2,r2,r0
        0x0000095e:    0052        R.      LSLS     r2,r2,#1
        0x00000960:    1a89        ..      SUBS     r1,r1,r2
        0x00000962:    e001        ..      B        0x968 ; __rt_udiv10 + 34
        0x00000964:    390a        .9      SUBS     r1,r1,#0xa
        0x00000966:    1c40        @.      ADDS     r0,r0,#1
        0x00000968:    290a        .)      CMP      r1,#0xa
        0x0000096a:    d2fb        ..      BCS      0x964 ; __rt_udiv10 + 30
        0x0000096c:    4770        pG      BX       lr
    .text
    __user_setup_stackheap
        0x0000096e:    4675        uF      MOV      r5,lr
        0x00000970:    f000f822    ..".    BL       __user_libspace ; 0x9b8
        0x00000974:    46ae        .F      MOV      lr,r5
        0x00000976:    0005        ..      MOVS     r5,r0
        0x00000978:    4669        iF      MOV      r1,sp
        0x0000097a:    4653        SF      MOV      r3,r10
        0x0000097c:    08c0        ..      LSRS     r0,r0,#3
        0x0000097e:    00c0        ..      LSLS     r0,r0,#3
        0x00000980:    4685        .F      MOV      sp,r0
        0x00000982:    b018        ..      ADD      sp,sp,#0x60
        0x00000984:    b520         .      PUSH     {r5,lr}
        0x00000986:    f7fffc2b    ..+.    BL       __user_initial_stackheap ; 0x1e0
        0x0000098a:    bc60        `.      POP      {r5,r6}
        0x0000098c:    2700        .'      MOVS     r7,#0
        0x0000098e:    0849        I.      LSRS     r1,r1,#1
        0x00000990:    46b6        .F      MOV      lr,r6
        0x00000992:    2600        .&      MOVS     r6,#0
        0x00000994:    c5c0        ..      STM      r5!,{r6,r7}
        0x00000996:    c5c0        ..      STM      r5!,{r6,r7}
        0x00000998:    c5c0        ..      STM      r5!,{r6,r7}
        0x0000099a:    c5c0        ..      STM      r5!,{r6,r7}
        0x0000099c:    c5c0        ..      STM      r5!,{r6,r7}
        0x0000099e:    c5c0        ..      STM      r5!,{r6,r7}
        0x000009a0:    c5c0        ..      STM      r5!,{r6,r7}
        0x000009a2:    c5c0        ..      STM      r5!,{r6,r7}
        0x000009a4:    3d40        @=      SUBS     r5,r5,#0x40
        0x000009a6:    0049        I.      LSLS     r1,r1,#1
        0x000009a8:    468d        .F      MOV      sp,r1
        0x000009aa:    4770        pG      BX       lr
    .text
    exit
        0x000009ac:    4604        .F      MOV      r4,r0
        0x000009ae:    46c0        .F      MOV      r8,r8
        0x000009b0:    46c0        .F      MOV      r8,r8
        0x000009b2:    4620         F      MOV      r0,r4
        0x000009b4:    f7fffbdb    ....    BL       __rt_exit ; 0x16e
    .text
    __user_libspace
    __user_perproc_libspace
    __user_perthread_libspace
        0x000009b8:    4800        .H      LDR      r0,[pc,#0] ; [0x9bc] = 0x200010e0
        0x000009ba:    4770        pG      BX       lr
    $d
        0x000009bc:    200010e0    ...     DCD    536875232
    $t
    .text
    _sys_exit
        0x000009c0:    4901        .I      LDR      r1,[pc,#4] ; [0x9c8] = 0x20026
        0x000009c2:    2018        .       MOVS     r0,#0x18
        0x000009c4:    beab        ..      BKPT     #0xab
        0x000009c6:    e7fe        ..      B        0x9c6 ; _sys_exit + 6
    $d
        0x000009c8:    00020026    &...    DCD    131110
    $t
    .text
    __I$use$semihosting
    __use_no_semihosting_swi
        0x000009cc:    4770        pG      BX       lr
        0x000009ce:    0000        ..      MOVS     r0,r0
    i.DrvGPIO_ClrBit
    DrvGPIO_ClrBit
        0x000009d0:    b510        ..      PUSH     {r4,lr}
        0x000009d2:    4603        .F      MOV      r3,r0
        0x000009d4:    2900        .)      CMP      r1,#0
        0x000009d6:    db01        ..      BLT      0x9dc ; DrvGPIO_ClrBit + 12
        0x000009d8:    2910        .)      CMP      r1,#0x10
        0x000009da:    dd01        ..      BLE      0x9e0 ; DrvGPIO_ClrBit + 16
        0x000009dc:    4805        .H      LDR      r0,[pc,#20] ; [0x9f4] = 0xffff8901
        0x000009de:    bd10        ..      POP      {r4,pc}
        0x000009e0:    0198        ..      LSLS     r0,r3,#6
        0x000009e2:    4c05        .L      LDR      r4,[pc,#20] ; [0x9f8] = 0x50004000
        0x000009e4:    1902        ..      ADDS     r2,r0,r4
        0x000009e6:    6890        .h      LDR      r0,[r2,#8]
        0x000009e8:    2401        .$      MOVS     r4,#1
        0x000009ea:    408c        .@      LSLS     r4,r4,r1
        0x000009ec:    43a0        .C      BICS     r0,r0,r4
        0x000009ee:    6090        .`      STR      r0,[r2,#8]
        0x000009f0:    2000        .       MOVS     r0,#0
        0x000009f2:    e7f4        ..      B        0x9de ; DrvGPIO_ClrBit + 14
    $d
        0x000009f4:    ffff8901    ....    DCD    4294936833
        0x000009f8:    50004000    .@.P    DCD    1342193664
    $t
    i.DrvGPIO_GetBit
    DrvGPIO_GetBit
        0x000009fc:    b510        ..      PUSH     {r4,lr}
        0x000009fe:    4602        .F      MOV      r2,r0
        0x00000a00:    2900        .)      CMP      r1,#0
        0x00000a02:    db01        ..      BLT      0xa08 ; DrvGPIO_GetBit + 12
        0x00000a04:    2910        .)      CMP      r1,#0x10
        0x00000a06:    dd01        ..      BLE      0xa0c ; DrvGPIO_GetBit + 16
        0x00000a08:    4804        .H      LDR      r0,[pc,#16] ; [0xa1c] = 0xffff8901
        0x00000a0a:    bd10        ..      POP      {r4,pc}
        0x00000a0c:    4804        .H      LDR      r0,[pc,#16] ; [0xa20] = 0x50004010
        0x00000a0e:    0194        ..      LSLS     r4,r2,#6
        0x00000a10:    1903        ..      ADDS     r3,r0,r4
        0x00000a12:    6818        .h      LDR      r0,[r3,#0]
        0x00000a14:    40c8        .@      LSRS     r0,r0,r1
        0x00000a16:    07c0        ..      LSLS     r0,r0,#31
        0x00000a18:    0fc0        ..      LSRS     r0,r0,#31
        0x00000a1a:    e7f6        ..      B        0xa0a ; DrvGPIO_GetBit + 14
    $d
        0x00000a1c:    ffff8901    ....    DCD    4294936833
        0x00000a20:    50004010    .@.P    DCD    1342193680
    $t
    i.DrvGPIO_Open
    DrvGPIO_Open
        0x00000a24:    b570        p.      PUSH     {r4-r6,lr}
        0x00000a26:    4604        .F      MOV      r4,r0
        0x00000a28:    460b        .F      MOV      r3,r1
        0x00000a2a:    2b00        .+      CMP      r3,#0
        0x00000a2c:    db01        ..      BLT      0xa32 ; DrvGPIO_Open + 14
        0x00000a2e:    2b10        .+      CMP      r3,#0x10
        0x00000a30:    dd01        ..      BLE      0xa36 ; DrvGPIO_Open + 18
        0x00000a32:    4818        .H      LDR      r0,[pc,#96] ; [0xa94] = 0xffff8901
        0x00000a34:    bd70        p.      POP      {r4-r6,pc}
        0x00000a36:    01a0        ..      LSLS     r0,r4,#6
        0x00000a38:    4d17        .M      LDR      r5,[pc,#92] ; [0xa98] = 0x50004000
        0x00000a3a:    1941        A.      ADDS     r1,r0,r5
        0x00000a3c:    2a00        .*      CMP      r2,#0
        0x00000a3e:    d003        ..      BEQ      0xa48 ; DrvGPIO_Open + 36
        0x00000a40:    2a01        .*      CMP      r2,#1
        0x00000a42:    d001        ..      BEQ      0xa48 ; DrvGPIO_Open + 36
        0x00000a44:    2a02        .*      CMP      r2,#2
        0x00000a46:    d117        ..      BNE      0xa78 ; DrvGPIO_Open + 84
        0x00000a48:    6808        .h      LDR      r0,[r1,#0]
        0x00000a4a:    005e        ^.      LSLS     r6,r3,#1
        0x00000a4c:    2503        .%      MOVS     r5,#3
        0x00000a4e:    40b5        .@      LSLS     r5,r5,r6
        0x00000a50:    43a8        .C      BICS     r0,r0,r5
        0x00000a52:    6008        .`      STR      r0,[r1,#0]
        0x00000a54:    2a01        .*      CMP      r2,#1
        0x00000a56:    d106        ..      BNE      0xa66 ; DrvGPIO_Open + 66
        0x00000a58:    6808        .h      LDR      r0,[r1,#0]
        0x00000a5a:    005e        ^.      LSLS     r6,r3,#1
        0x00000a5c:    2501        .%      MOVS     r5,#1
        0x00000a5e:    40b5        .@      LSLS     r5,r5,r6
        0x00000a60:    4328        (C      ORRS     r0,r0,r5
        0x00000a62:    6008        .`      STR      r0,[r1,#0]
        0x00000a64:    e013        ..      B        0xa8e ; DrvGPIO_Open + 106
        0x00000a66:    2a02        .*      CMP      r2,#2
        0x00000a68:    d111        ..      BNE      0xa8e ; DrvGPIO_Open + 106
        0x00000a6a:    6808        .h      LDR      r0,[r1,#0]
        0x00000a6c:    005e        ^.      LSLS     r6,r3,#1
        0x00000a6e:    2502        .%      MOVS     r5,#2
        0x00000a70:    40b5        .@      LSLS     r5,r5,r6
        0x00000a72:    4328        (C      ORRS     r0,r0,r5
        0x00000a74:    6008        .`      STR      r0,[r1,#0]
        0x00000a76:    e00a        ..      B        0xa8e ; DrvGPIO_Open + 106
        0x00000a78:    2a03        .*      CMP      r2,#3
        0x00000a7a:    d106        ..      BNE      0xa8a ; DrvGPIO_Open + 102
        0x00000a7c:    6808        .h      LDR      r0,[r1,#0]
        0x00000a7e:    005e        ^.      LSLS     r6,r3,#1
        0x00000a80:    2503        .%      MOVS     r5,#3
        0x00000a82:    40b5        .@      LSLS     r5,r5,r6
        0x00000a84:    4328        (C      ORRS     r0,r0,r5
        0x00000a86:    6008        .`      STR      r0,[r1,#0]
        0x00000a88:    e001        ..      B        0xa8e ; DrvGPIO_Open + 106
        0x00000a8a:    4802        .H      LDR      r0,[pc,#8] ; [0xa94] = 0xffff8901
        0x00000a8c:    e7d2        ..      B        0xa34 ; DrvGPIO_Open + 16
        0x00000a8e:    2000        .       MOVS     r0,#0
        0x00000a90:    e7d0        ..      B        0xa34 ; DrvGPIO_Open + 16
    $d
        0x00000a92:    0000        ..      DCW    0
        0x00000a94:    ffff8901    ....    DCD    4294936833
        0x00000a98:    50004000    .@.P    DCD    1342193664
    $t
    i.DrvGPIO_SetBit
    DrvGPIO_SetBit
        0x00000a9c:    b510        ..      PUSH     {r4,lr}
        0x00000a9e:    4603        .F      MOV      r3,r0
        0x00000aa0:    2900        .)      CMP      r1,#0
        0x00000aa2:    db01        ..      BLT      0xaa8 ; DrvGPIO_SetBit + 12
        0x00000aa4:    2910        .)      CMP      r1,#0x10
        0x00000aa6:    dd01        ..      BLE      0xaac ; DrvGPIO_SetBit + 16
        0x00000aa8:    4805        .H      LDR      r0,[pc,#20] ; [0xac0] = 0xffff8901
        0x00000aaa:    bd10        ..      POP      {r4,pc}
        0x00000aac:    0198        ..      LSLS     r0,r3,#6
        0x00000aae:    4c05        .L      LDR      r4,[pc,#20] ; [0xac4] = 0x50004000
        0x00000ab0:    1902        ..      ADDS     r2,r0,r4
        0x00000ab2:    6890        .h      LDR      r0,[r2,#8]
        0x00000ab4:    2401        .$      MOVS     r4,#1
        0x00000ab6:    408c        .@      LSLS     r4,r4,r1
        0x00000ab8:    4320         C      ORRS     r0,r0,r4
        0x00000aba:    6090        .`      STR      r0,[r2,#8]
        0x00000abc:    2000        .       MOVS     r0,#0
        0x00000abe:    e7f4        ..      B        0xaaa ; DrvGPIO_SetBit + 14
    $d
        0x00000ac0:    ffff8901    ....    DCD    4294936833
        0x00000ac4:    50004000    .@.P    DCD    1342193664
    $t
    i.EINT0_IRQHandler
    EINT0_IRQHandler
        0x00000ac8:    b510        ..      PUSH     {r4,lr}
        0x00000aca:    2001        .       MOVS     r0,#1
        0x00000acc:    0380        ..      LSLS     r0,r0,#14
        0x00000ace:    4905        .I      LDR      r1,[pc,#20] ; [0xae4] = 0x50004040
        0x00000ad0:    6208        .b      STR      r0,[r1,#0x20]
        0x00000ad2:    4805        .H      LDR      r0,[pc,#20] ; [0xae8] = 0x200007f4
        0x00000ad4:    6800        .h      LDR      r0,[r0,#0]
        0x00000ad6:    2800        .(      CMP      r0,#0
        0x00000ad8:    d002        ..      BEQ      0xae0 ; EINT0_IRQHandler + 24
        0x00000ada:    4803        .H      LDR      r0,[pc,#12] ; [0xae8] = 0x200007f4
        0x00000adc:    6800        .h      LDR      r0,[r0,#0]
        0x00000ade:    4780        .G      BLX      r0
        0x00000ae0:    bd10        ..      POP      {r4,pc}
    $d
        0x00000ae2:    0000        ..      DCW    0
        0x00000ae4:    50004040    @@.P    DCD    1342193728
        0x00000ae8:    200007f4    ...     DCD    536872948
    $t
    i.EINT1_IRQHandler
    EINT1_IRQHandler
        0x00000aec:    b510        ..      PUSH     {r4,lr}
        0x00000aee:    2001        .       MOVS     r0,#1
        0x00000af0:    03c0        ..      LSLS     r0,r0,#15
        0x00000af2:    4905        .I      LDR      r1,[pc,#20] ; [0xb08] = 0x50004040
        0x00000af4:    6208        .b      STR      r0,[r1,#0x20]
        0x00000af6:    4805        .H      LDR      r0,[pc,#20] ; [0xb0c] = 0x200007f8
        0x00000af8:    6800        .h      LDR      r0,[r0,#0]
        0x00000afa:    2800        .(      CMP      r0,#0
        0x00000afc:    d002        ..      BEQ      0xb04 ; EINT1_IRQHandler + 24
        0x00000afe:    4803        .H      LDR      r0,[pc,#12] ; [0xb0c] = 0x200007f8
        0x00000b00:    6800        .h      LDR      r0,[r0,#0]
        0x00000b02:    4780        .G      BLX      r0
        0x00000b04:    bd10        ..      POP      {r4,pc}
    $d
        0x00000b06:    0000        ..      DCW    0
        0x00000b08:    50004040    @@.P    DCD    1342193728
        0x00000b0c:    200007f8    ...     DCD    536872952
    $t
    i.GPAB_IRQHandler
    GPAB_IRQHandler
        0x00000b10:    b570        p.      PUSH     {r4-r6,lr}
        0x00000b12:    480c        .H      LDR      r0,[pc,#48] ; [0xb44] = 0x50004000
        0x00000b14:    6a05        .j      LDR      r5,[r0,#0x20]
        0x00000b16:    480b        .H      LDR      r0,[pc,#44] ; [0xb44] = 0x50004000
        0x00000b18:    3040        @0      ADDS     r0,r0,#0x40
        0x00000b1a:    6a04        .j      LDR      r4,[r0,#0x20]
        0x00000b1c:    2103        .!      MOVS     r1,#3
        0x00000b1e:    0389        ..      LSLS     r1,r1,#14
        0x00000b20:    4620         F      MOV      r0,r4
        0x00000b22:    4388        .C      BICS     r0,r0,r1
        0x00000b24:    4604        .F      MOV      r4,r0
        0x00000b26:    4807        .H      LDR      r0,[pc,#28] ; [0xb44] = 0x50004000
        0x00000b28:    6205        .b      STR      r5,[r0,#0x20]
        0x00000b2a:    4806        .H      LDR      r0,[pc,#24] ; [0xb44] = 0x50004000
        0x00000b2c:    3040        @0      ADDS     r0,r0,#0x40
        0x00000b2e:    6204        .b      STR      r4,[r0,#0x20]
        0x00000b30:    4805        .H      LDR      r0,[pc,#20] ; [0xb48] = 0x200007ec
        0x00000b32:    6800        .h      LDR      r0,[r0,#0]
        0x00000b34:    2800        .(      CMP      r0,#0
        0x00000b36:    d004        ..      BEQ      0xb42 ; GPAB_IRQHandler + 50
        0x00000b38:    4621        !F      MOV      r1,r4
        0x00000b3a:    4628        (F      MOV      r0,r5
        0x00000b3c:    4a02        .J      LDR      r2,[pc,#8] ; [0xb48] = 0x200007ec
        0x00000b3e:    6812        .h      LDR      r2,[r2,#0]
        0x00000b40:    4790        .G      BLX      r2
        0x00000b42:    bd70        p.      POP      {r4-r6,pc}
    $d
        0x00000b44:    50004000    .@.P    DCD    1342193664
        0x00000b48:    200007ec    ...     DCD    536872940
    $t
    i.GPCDE_IRQHandler
    GPCDE_IRQHandler
        0x00000b4c:    b570        p.      PUSH     {r4-r6,lr}
        0x00000b4e:    480d        .H      LDR      r0,[pc,#52] ; [0xb84] = 0x50004080
        0x00000b50:    6a04        .j      LDR      r4,[r0,#0x20]
        0x00000b52:    480c        .H      LDR      r0,[pc,#48] ; [0xb84] = 0x50004080
        0x00000b54:    3040        @0      ADDS     r0,r0,#0x40
        0x00000b56:    6a05        .j      LDR      r5,[r0,#0x20]
        0x00000b58:    480a        .H      LDR      r0,[pc,#40] ; [0xb84] = 0x50004080
        0x00000b5a:    3080        .0      ADDS     r0,r0,#0x80
        0x00000b5c:    6a06        .j      LDR      r6,[r0,#0x20]
        0x00000b5e:    4809        .H      LDR      r0,[pc,#36] ; [0xb84] = 0x50004080
        0x00000b60:    6204        .b      STR      r4,[r0,#0x20]
        0x00000b62:    4808        .H      LDR      r0,[pc,#32] ; [0xb84] = 0x50004080
        0x00000b64:    3040        @0      ADDS     r0,r0,#0x40
        0x00000b66:    6205        .b      STR      r5,[r0,#0x20]
        0x00000b68:    4806        .H      LDR      r0,[pc,#24] ; [0xb84] = 0x50004080
        0x00000b6a:    3080        .0      ADDS     r0,r0,#0x80
        0x00000b6c:    6206        .b      STR      r6,[r0,#0x20]
        0x00000b6e:    4806        .H      LDR      r0,[pc,#24] ; [0xb88] = 0x200007f0
        0x00000b70:    6800        .h      LDR      r0,[r0,#0]
        0x00000b72:    2800        .(      CMP      r0,#0
        0x00000b74:    d005        ..      BEQ      0xb82 ; GPCDE_IRQHandler + 54
        0x00000b76:    4632        2F      MOV      r2,r6
        0x00000b78:    4629        )F      MOV      r1,r5
        0x00000b7a:    4620         F      MOV      r0,r4
        0x00000b7c:    4b02        .K      LDR      r3,[pc,#8] ; [0xb88] = 0x200007f0
        0x00000b7e:    681b        .h      LDR      r3,[r3,#0]
        0x00000b80:    4798        .G      BLX      r3
        0x00000b82:    bd70        p.      POP      {r4-r6,pc}
    $d
        0x00000b84:    50004080    .@.P    DCD    1342193792
        0x00000b88:    200007f0    ...     DCD    536872944
    $t
    i.GetRand
    GetRand
        0x00000b8c:    b510        ..      PUSH     {r4,lr}
        0x00000b8e:    f7fffaf5    ....    BL       rand ; 0x17c
        0x00000b92:    4604        .F      MOV      r4,r0
        0x00000b94:    2106        .!      MOVS     r1,#6
        0x00000b96:    f7fffbeb    ....    BL       __aeabi_idiv ; 0x370
        0x00000b9a:    1c49        I.      ADDS     r1,r1,#1
        0x00000b9c:    b248        H.      SXTB     r0,r1
        0x00000b9e:    bd10        ..      POP      {r4,pc}
    i.InitData
    InitData
        0x00000ba0:    b510        ..      PUSH     {r4,lr}
        0x00000ba2:    2401        .$      MOVS     r4,#1
        0x00000ba4:    e005        ..      B        0xbb2 ; InitData + 18
        0x00000ba6:    4621        !F      MOV      r1,r4
        0x00000ba8:    2000        .       MOVS     r0,#0
        0x00000baa:    f000f92b    ..+.    BL       LoadImg ; 0xe04
        0x00000bae:    1c60        `.      ADDS     r0,r4,#1
        0x00000bb0:    b2c4        ..      UXTB     r4,r0
        0x00000bb2:    2c06        .,      CMP      r4,#6
        0x00000bb4:    ddf7        ..      BLE      0xba6 ; InitData + 6
        0x00000bb6:    bd10        ..      POP      {r4,pc}
    i.Initial_panel
    Initial_panel
        0x00000bb8:    4883        .H      LDR      r0,[pc,#524] ; [0xdc8] = 0x50000200
        0x00000bba:    6880        .h      LDR      r0,[r0,#8]
        0x00000bbc:    2101        .!      MOVS     r1,#1
        0x00000bbe:    03c9        ..      LSLS     r1,r1,#15
        0x00000bc0:    4388        .C      BICS     r0,r0,r1
        0x00000bc2:    1840        @.      ADDS     r0,r0,r1
        0x00000bc4:    4980        .I      LDR      r1,[pc,#512] ; [0xdc8] = 0x50000200
        0x00000bc6:    6088        .`      STR      r0,[r1,#8]
        0x00000bc8:    2005        .       MOVS     r0,#5
        0x00000bca:    0700        ..      LSLS     r0,r0,#28
        0x00000bcc:    68c0        .h      LDR      r0,[r0,#0xc]
        0x00000bce:    0189        ..      LSLS     r1,r1,#6
        0x00000bd0:    4388        .C      BICS     r0,r0,r1
        0x00000bd2:    1840        @.      ADDS     r0,r0,r1
        0x00000bd4:    2105        .!      MOVS     r1,#5
        0x00000bd6:    0709        ..      LSLS     r1,r1,#28
        0x00000bd8:    60c8        .`      STR      r0,[r1,#0xc]
        0x00000bda:    4608        .F      MOV      r0,r1
        0x00000bdc:    68c0        .h      LDR      r0,[r0,#0xc]
        0x00000bde:    2101        .!      MOVS     r1,#1
        0x00000be0:    03c9        ..      LSLS     r1,r1,#15
        0x00000be2:    4388        .C      BICS     r0,r0,r1
        0x00000be4:    2105        .!      MOVS     r1,#5
        0x00000be6:    0709        ..      LSLS     r1,r1,#28
        0x00000be8:    60c8        .`      STR      r0,[r1,#0xc]
        0x00000bea:    4608        .F      MOV      r0,r1
        0x00000bec:    6bc0        .k      LDR      r0,[r0,#0x3c]
        0x00000bee:    21ff        .!      MOVS     r1,#0xff
        0x00000bf0:    3101        .1      ADDS     r1,#1
        0x00000bf2:    4388        .C      BICS     r0,r0,r1
        0x00000bf4:    1840        @.      ADDS     r0,r0,r1
        0x00000bf6:    2105        .!      MOVS     r1,#5
        0x00000bf8:    0709        ..      LSLS     r1,r1,#28
        0x00000bfa:    63c8        .c      STR      r0,[r1,#0x3c]
        0x00000bfc:    4608        .F      MOV      r0,r1
        0x00000bfe:    6bc0        .k      LDR      r0,[r0,#0x3c]
        0x00000c00:    2101        .!      MOVS     r1,#1
        0x00000c02:    0249        I.      LSLS     r1,r1,#9
        0x00000c04:    4388        .C      BICS     r0,r0,r1
        0x00000c06:    1840        @.      ADDS     r0,r0,r1
        0x00000c08:    2105        .!      MOVS     r1,#5
        0x00000c0a:    0709        ..      LSLS     r1,r1,#28
        0x00000c0c:    63c8        .c      STR      r0,[r1,#0x3c]
        0x00000c0e:    4608        .F      MOV      r0,r1
        0x00000c10:    6bc0        .k      LDR      r0,[r0,#0x3c]
        0x00000c12:    2101        .!      MOVS     r1,#1
        0x00000c14:    02c9        ..      LSLS     r1,r1,#11
        0x00000c16:    4388        .C      BICS     r0,r0,r1
        0x00000c18:    1840        @.      ADDS     r0,r0,r1
        0x00000c1a:    2105        .!      MOVS     r1,#5
        0x00000c1c:    0709        ..      LSLS     r1,r1,#28
        0x00000c1e:    63c8        .c      STR      r0,[r1,#0x3c]
        0x00000c20:    486a        jH      LDR      r0,[pc,#424] ; [0xdcc] = 0x200005fc
        0x00000c22:    68c0        .h      LDR      r0,[r0,#0xc]
        0x00000c24:    6800        .h      LDR      r0,[r0,#0]
        0x00000c26:    2101        .!      MOVS     r1,#1
        0x00000c28:    02c9        ..      LSLS     r1,r1,#11
        0x00000c2a:    4388        .C      BICS     r0,r0,r1
        0x00000c2c:    1840        @.      ADDS     r0,r0,r1
        0x00000c2e:    4967        gI      LDR      r1,[pc,#412] ; [0xdcc] = 0x200005fc
        0x00000c30:    68c9        .h      LDR      r1,[r1,#0xc]
        0x00000c32:    6008        .`      STR      r0,[r1,#0]
        0x00000c34:    4865        eH      LDR      r0,[pc,#404] ; [0xdcc] = 0x200005fc
        0x00000c36:    68c0        .h      LDR      r0,[r0,#0xc]
        0x00000c38:    6800        .h      LDR      r0,[r0,#0]
        0x00000c3a:    21f8        .!      MOVS     r1,#0xf8
        0x00000c3c:    4388        .C      BICS     r0,r0,r1
        0x00000c3e:    3048        H0      ADDS     r0,r0,#0x48
        0x00000c40:    4962        bI      LDR      r1,[pc,#392] ; [0xdcc] = 0x200005fc
        0x00000c42:    68c9        .h      LDR      r1,[r1,#0xc]
        0x00000c44:    6008        .`      STR      r0,[r1,#0]
        0x00000c46:    4861        aH      LDR      r0,[pc,#388] ; [0xdcc] = 0x200005fc
        0x00000c48:    68c0        .h      LDR      r0,[r0,#0xc]
        0x00000c4a:    6800        .h      LDR      r0,[r0,#0]
        0x00000c4c:    2104        .!      MOVS     r1,#4
        0x00000c4e:    4388        .C      BICS     r0,r0,r1
        0x00000c50:    1d00        ..      ADDS     r0,r0,#4
        0x00000c52:    495e        ^I      LDR      r1,[pc,#376] ; [0xdcc] = 0x200005fc
        0x00000c54:    68c9        .h      LDR      r1,[r1,#0xc]
        0x00000c56:    6008        .`      STR      r0,[r1,#0]
        0x00000c58:    485c        \H      LDR      r0,[pc,#368] ; [0xdcc] = 0x200005fc
        0x00000c5a:    68c0        .h      LDR      r0,[r0,#0xc]
        0x00000c5c:    6840        @h      LDR      r0,[r0,#4]
        0x00000c5e:    0c00        ..      LSRS     r0,r0,#16
        0x00000c60:    0400        ..      LSLS     r0,r0,#16
        0x00000c62:    1cc0        ..      ADDS     r0,r0,#3
        0x00000c64:    4959        YI      LDR      r1,[pc,#356] ; [0xdcc] = 0x200005fc
        0x00000c66:    68c9        .h      LDR      r1,[r1,#0xc]
        0x00000c68:    6048        H`      STR      r0,[r1,#4]
        0x00000c6a:    4858        XH      LDR      r0,[pc,#352] ; [0xdcc] = 0x200005fc
        0x00000c6c:    68c0        .h      LDR      r0,[r0,#0xc]
        0x00000c6e:    6880        .h      LDR      r0,[r0,#8]
        0x00000c70:    0880        ..      LSRS     r0,r0,#2
        0x00000c72:    0080        ..      LSLS     r0,r0,#2
        0x00000c74:    1c40        @.      ADDS     r0,r0,#1
        0x00000c76:    4955        UI      LDR      r1,[pc,#340] ; [0xdcc] = 0x200005fc
        0x00000c78:    68c9        .h      LDR      r1,[r1,#0xc]
        0x00000c7a:    6088        .`      STR      r0,[r1,#8]
        0x00000c7c:    20eb        .       MOVS     r0,#0xeb
        0x00000c7e:    4953        SI      LDR      r1,[pc,#332] ; [0xdcc] = 0x200005fc
        0x00000c80:    68c9        .h      LDR      r1,[r1,#0xc]
        0x00000c82:    6208        .b      STR      r0,[r1,#0x20]
        0x00000c84:    4851        QH      LDR      r0,[pc,#324] ; [0xdcc] = 0x200005fc
        0x00000c86:    68c0        .h      LDR      r0,[r0,#0xc]
        0x00000c88:    6800        .h      LDR      r0,[r0,#0]
        0x00000c8a:    0840        @.      LSRS     r0,r0,#1
        0x00000c8c:    0040        @.      LSLS     r0,r0,#1
        0x00000c8e:    1c40        @.      ADDS     r0,r0,#1
        0x00000c90:    494e        NI      LDR      r1,[pc,#312] ; [0xdcc] = 0x200005fc
        0x00000c92:    68c9        .h      LDR      r1,[r1,#0xc]
        0x00000c94:    6008        .`      STR      r0,[r1,#0]
        0x00000c96:    bf00        ..      NOP      
        0x00000c98:    484c        LH      LDR      r0,[pc,#304] ; [0xdcc] = 0x200005fc
        0x00000c9a:    68c0        .h      LDR      r0,[r0,#0xc]
        0x00000c9c:    6800        .h      LDR      r0,[r0,#0]
        0x00000c9e:    07c0        ..      LSLS     r0,r0,#31
        0x00000ca0:    0fc0        ..      LSRS     r0,r0,#31
        0x00000ca2:    2801        .(      CMP      r0,#1
        0x00000ca4:    d0f8        ..      BEQ      0xc98 ; Initial_panel + 224
        0x00000ca6:    4849        IH      LDR      r0,[pc,#292] ; [0xdcc] = 0x200005fc
        0x00000ca8:    68c0        .h      LDR      r0,[r0,#0xc]
        0x00000caa:    6880        .h      LDR      r0,[r0,#8]
        0x00000cac:    0880        ..      LSRS     r0,r0,#2
        0x00000cae:    0080        ..      LSLS     r0,r0,#2
        0x00000cb0:    4946        FI      LDR      r1,[pc,#280] ; [0xdcc] = 0x200005fc
        0x00000cb2:    68c9        .h      LDR      r1,[r1,#0xc]
        0x00000cb4:    6088        .`      STR      r0,[r1,#8]
        0x00000cb6:    4845        EH      LDR      r0,[pc,#276] ; [0xdcc] = 0x200005fc
        0x00000cb8:    68c0        .h      LDR      r0,[r0,#0xc]
        0x00000cba:    6880        .h      LDR      r0,[r0,#8]
        0x00000cbc:    0880        ..      LSRS     r0,r0,#2
        0x00000cbe:    0080        ..      LSLS     r0,r0,#2
        0x00000cc0:    1c40        @.      ADDS     r0,r0,#1
        0x00000cc2:    4942        BI      LDR      r1,[pc,#264] ; [0xdcc] = 0x200005fc
        0x00000cc4:    68c9        .h      LDR      r1,[r1,#0xc]
        0x00000cc6:    6088        .`      STR      r0,[r1,#8]
        0x00000cc8:    2081        .       MOVS     r0,#0x81
        0x00000cca:    4940        @I      LDR      r1,[pc,#256] ; [0xdcc] = 0x200005fc
        0x00000ccc:    68c9        .h      LDR      r1,[r1,#0xc]
        0x00000cce:    6208        .b      STR      r0,[r1,#0x20]
        0x00000cd0:    483e        >H      LDR      r0,[pc,#248] ; [0xdcc] = 0x200005fc
        0x00000cd2:    68c0        .h      LDR      r0,[r0,#0xc]
        0x00000cd4:    6800        .h      LDR      r0,[r0,#0]
        0x00000cd6:    0840        @.      LSRS     r0,r0,#1
        0x00000cd8:    0040        @.      LSLS     r0,r0,#1
        0x00000cda:    1c40        @.      ADDS     r0,r0,#1
        0x00000cdc:    493b        ;I      LDR      r1,[pc,#236] ; [0xdcc] = 0x200005fc
        0x00000cde:    68c9        .h      LDR      r1,[r1,#0xc]
        0x00000ce0:    6008        .`      STR      r0,[r1,#0]
        0x00000ce2:    bf00        ..      NOP      
        0x00000ce4:    4839        9H      LDR      r0,[pc,#228] ; [0xdcc] = 0x200005fc
        0x00000ce6:    68c0        .h      LDR      r0,[r0,#0xc]
        0x00000ce8:    6800        .h      LDR      r0,[r0,#0]
        0x00000cea:    07c0        ..      LSLS     r0,r0,#31
        0x00000cec:    0fc0        ..      LSRS     r0,r0,#31
        0x00000cee:    2801        .(      CMP      r0,#1
        0x00000cf0:    d0f8        ..      BEQ      0xce4 ; Initial_panel + 300
        0x00000cf2:    20a0        .       MOVS     r0,#0xa0
        0x00000cf4:    4935        5I      LDR      r1,[pc,#212] ; [0xdcc] = 0x200005fc
        0x00000cf6:    68c9        .h      LDR      r1,[r1,#0xc]
        0x00000cf8:    6208        .b      STR      r0,[r1,#0x20]
        0x00000cfa:    4834        4H      LDR      r0,[pc,#208] ; [0xdcc] = 0x200005fc
        0x00000cfc:    68c0        .h      LDR      r0,[r0,#0xc]
        0x00000cfe:    6800        .h      LDR      r0,[r0,#0]
        0x00000d00:    0840        @.      LSRS     r0,r0,#1
        0x00000d02:    0040        @.      LSLS     r0,r0,#1
        0x00000d04:    1c40        @.      ADDS     r0,r0,#1
        0x00000d06:    4931        1I      LDR      r1,[pc,#196] ; [0xdcc] = 0x200005fc
        0x00000d08:    68c9        .h      LDR      r1,[r1,#0xc]
        0x00000d0a:    6008        .`      STR      r0,[r1,#0]
        0x00000d0c:    bf00        ..      NOP      
        0x00000d0e:    482f        /H      LDR      r0,[pc,#188] ; [0xdcc] = 0x200005fc
        0x00000d10:    68c0        .h      LDR      r0,[r0,#0xc]
        0x00000d12:    6800        .h      LDR      r0,[r0,#0]
        0x00000d14:    07c0        ..      LSLS     r0,r0,#31
        0x00000d16:    0fc0        ..      LSRS     r0,r0,#31
        0x00000d18:    2801        .(      CMP      r0,#1
        0x00000d1a:    d0f8        ..      BEQ      0xd0e ; Initial_panel + 342
        0x00000d1c:    482b        +H      LDR      r0,[pc,#172] ; [0xdcc] = 0x200005fc
        0x00000d1e:    68c0        .h      LDR      r0,[r0,#0xc]
        0x00000d20:    6880        .h      LDR      r0,[r0,#8]
        0x00000d22:    0880        ..      LSRS     r0,r0,#2
        0x00000d24:    0080        ..      LSLS     r0,r0,#2
        0x00000d26:    4929        )I      LDR      r1,[pc,#164] ; [0xdcc] = 0x200005fc
        0x00000d28:    68c9        .h      LDR      r1,[r1,#0xc]
        0x00000d2a:    6088        .`      STR      r0,[r1,#8]
        0x00000d2c:    4827        'H      LDR      r0,[pc,#156] ; [0xdcc] = 0x200005fc
        0x00000d2e:    68c0        .h      LDR      r0,[r0,#0xc]
        0x00000d30:    6880        .h      LDR      r0,[r0,#8]
        0x00000d32:    0880        ..      LSRS     r0,r0,#2
        0x00000d34:    0080        ..      LSLS     r0,r0,#2
        0x00000d36:    1c40        @.      ADDS     r0,r0,#1
        0x00000d38:    4924        $I      LDR      r1,[pc,#144] ; [0xdcc] = 0x200005fc
        0x00000d3a:    68c9        .h      LDR      r1,[r1,#0xc]
        0x00000d3c:    6088        .`      STR      r0,[r1,#8]
        0x00000d3e:    20c0        .       MOVS     r0,#0xc0
        0x00000d40:    4922        "I      LDR      r1,[pc,#136] ; [0xdcc] = 0x200005fc
        0x00000d42:    68c9        .h      LDR      r1,[r1,#0xc]
        0x00000d44:    6208        .b      STR      r0,[r1,#0x20]
        0x00000d46:    4821        !H      LDR      r0,[pc,#132] ; [0xdcc] = 0x200005fc
        0x00000d48:    68c0        .h      LDR      r0,[r0,#0xc]
        0x00000d4a:    6800        .h      LDR      r0,[r0,#0]
        0x00000d4c:    0840        @.      LSRS     r0,r0,#1
        0x00000d4e:    0040        @.      LSLS     r0,r0,#1
        0x00000d50:    1c40        @.      ADDS     r0,r0,#1
        0x00000d52:    491e        .I      LDR      r1,[pc,#120] ; [0xdcc] = 0x200005fc
        0x00000d54:    68c9        .h      LDR      r1,[r1,#0xc]
        0x00000d56:    6008        .`      STR      r0,[r1,#0]
        0x00000d58:    bf00        ..      NOP      
        0x00000d5a:    481c        .H      LDR      r0,[pc,#112] ; [0xdcc] = 0x200005fc
        0x00000d5c:    68c0        .h      LDR      r0,[r0,#0xc]
        0x00000d5e:    6800        .h      LDR      r0,[r0,#0]
        0x00000d60:    07c0        ..      LSLS     r0,r0,#31
        0x00000d62:    0fc0        ..      LSRS     r0,r0,#31
        0x00000d64:    2801        .(      CMP      r0,#1
        0x00000d66:    d0f8        ..      BEQ      0xd5a ; Initial_panel + 418
        0x00000d68:    4818        .H      LDR      r0,[pc,#96] ; [0xdcc] = 0x200005fc
        0x00000d6a:    68c0        .h      LDR      r0,[r0,#0xc]
        0x00000d6c:    6880        .h      LDR      r0,[r0,#8]
        0x00000d6e:    0880        ..      LSRS     r0,r0,#2
        0x00000d70:    0080        ..      LSLS     r0,r0,#2
        0x00000d72:    4916        .I      LDR      r1,[pc,#88] ; [0xdcc] = 0x200005fc
        0x00000d74:    68c9        .h      LDR      r1,[r1,#0xc]
        0x00000d76:    6088        .`      STR      r0,[r1,#8]
        0x00000d78:    4814        .H      LDR      r0,[pc,#80] ; [0xdcc] = 0x200005fc
        0x00000d7a:    68c0        .h      LDR      r0,[r0,#0xc]
        0x00000d7c:    6880        .h      LDR      r0,[r0,#8]
        0x00000d7e:    0880        ..      LSRS     r0,r0,#2
        0x00000d80:    0080        ..      LSLS     r0,r0,#2
        0x00000d82:    1c40        @.      ADDS     r0,r0,#1
        0x00000d84:    4911        .I      LDR      r1,[pc,#68] ; [0xdcc] = 0x200005fc
        0x00000d86:    68c9        .h      LDR      r1,[r1,#0xc]
        0x00000d88:    6088        .`      STR      r0,[r1,#8]
        0x00000d8a:    20af        .       MOVS     r0,#0xaf
        0x00000d8c:    490f        .I      LDR      r1,[pc,#60] ; [0xdcc] = 0x200005fc
        0x00000d8e:    68c9        .h      LDR      r1,[r1,#0xc]
        0x00000d90:    6208        .b      STR      r0,[r1,#0x20]
        0x00000d92:    480e        .H      LDR      r0,[pc,#56] ; [0xdcc] = 0x200005fc
        0x00000d94:    68c0        .h      LDR      r0,[r0,#0xc]
        0x00000d96:    6800        .h      LDR      r0,[r0,#0]
        0x00000d98:    0840        @.      LSRS     r0,r0,#1
        0x00000d9a:    0040        @.      LSLS     r0,r0,#1
        0x00000d9c:    1c40        @.      ADDS     r0,r0,#1
        0x00000d9e:    490b        .I      LDR      r1,[pc,#44] ; [0xdcc] = 0x200005fc
        0x00000da0:    68c9        .h      LDR      r1,[r1,#0xc]
        0x00000da2:    6008        .`      STR      r0,[r1,#0]
        0x00000da4:    bf00        ..      NOP      
        0x00000da6:    4809        .H      LDR      r0,[pc,#36] ; [0xdcc] = 0x200005fc
        0x00000da8:    68c0        .h      LDR      r0,[r0,#0xc]
        0x00000daa:    6800        .h      LDR      r0,[r0,#0]
        0x00000dac:    07c0        ..      LSLS     r0,r0,#31
        0x00000dae:    0fc0        ..      LSRS     r0,r0,#31
        0x00000db0:    2801        .(      CMP      r0,#1
        0x00000db2:    d0f8        ..      BEQ      0xda6 ; Initial_panel + 494
        0x00000db4:    4805        .H      LDR      r0,[pc,#20] ; [0xdcc] = 0x200005fc
        0x00000db6:    68c0        .h      LDR      r0,[r0,#0xc]
        0x00000db8:    6880        .h      LDR      r0,[r0,#8]
        0x00000dba:    0880        ..      LSRS     r0,r0,#2
        0x00000dbc:    0080        ..      LSLS     r0,r0,#2
        0x00000dbe:    4903        .I      LDR      r1,[pc,#12] ; [0xdcc] = 0x200005fc
        0x00000dc0:    68c9        .h      LDR      r1,[r1,#0xc]
        0x00000dc2:    6088        .`      STR      r0,[r1,#8]
        0x00000dc4:    4770        pG      BX       lr
    $d
        0x00000dc6:    0000        ..      DCW    0
        0x00000dc8:    50000200    ...P    DCD    1342177792
        0x00000dcc:    200005fc    ...     DCD    536872444
    $t
    i.LoadBuf
    LoadBuf
        0x00000dd0:    b510        ..      PUSH     {r4,lr}
        0x00000dd2:    2000        .       MOVS     r0,#0
        0x00000dd4:    e00f        ..      B        0xdf6 ; LoadBuf + 38
        0x00000dd6:    2100        .!      MOVS     r1,#0
        0x00000dd8:    e009        ..      B        0xdee ; LoadBuf + 30
        0x00000dda:    01ca        ..      LSLS     r2,r1,#7
        0x00000ddc:    1812        ..      ADDS     r2,r2,r0
        0x00000dde:    4b07        .K      LDR      r3,[pc,#28] ; [0xdfc] = 0x200007fc
        0x00000de0:    5c9a        .\      LDRB     r2,[r3,r2]
        0x00000de2:    00c3        ..      LSLS     r3,r0,#3
        0x00000de4:    185b        [.      ADDS     r3,r3,r1
        0x00000de6:    4c06        .L      LDR      r4,[pc,#24] ; [0xe00] = 0x20000bfc
        0x00000de8:    54e2        .T      STRB     r2,[r4,r3]
        0x00000dea:    1c4a        J.      ADDS     r2,r1,#1
        0x00000dec:    b2d1        ..      UXTB     r1,r2
        0x00000dee:    2908        .)      CMP      r1,#8
        0x00000df0:    dbf3        ..      BLT      0xdda ; LoadBuf + 10
        0x00000df2:    1c42        B.      ADDS     r2,r0,#1
        0x00000df4:    b2d0        ..      UXTB     r0,r2
        0x00000df6:    2880        .(      CMP      r0,#0x80
        0x00000df8:    dbed        ..      BLT      0xdd6 ; LoadBuf + 6
        0x00000dfa:    bd10        ..      POP      {r4,pc}
    $d
        0x00000dfc:    200007fc    ...     DCD    536872956
        0x00000e00:    20000bfc    ...     DCD    536873980
    $t
    i.LoadImg
    LoadImg
        0x00000e04:    b5f3        ..      PUSH     {r0,r1,r4-r7,lr}
        0x00000e06:    b081        ..      SUB      sp,sp,#4
        0x00000e08:    460c        .F      MOV      r4,r1
        0x00000e0a:    9801        ..      LDR      r0,[sp,#4]
        0x00000e0c:    2800        .(      CMP      r0,#0
        0x00000e0e:    d004        ..      BEQ      0xe1a ; LoadImg + 22
        0x00000e10:    2801        .(      CMP      r0,#1
        0x00000e12:    d02d        -.      BEQ      0xe70 ; LoadImg + 108
        0x00000e14:    2802        .(      CMP      r0,#2
        0x00000e16:    d17e        ~.      BNE      0xf16 ; LoadImg + 274
        0x00000e18:    e055        U.      B        0xec6 ; LoadImg + 194
        0x00000e1a:    2600        .&      MOVS     r6,#0
        0x00000e1c:    e025        %.      B        0xe6a ; LoadImg + 102
        0x00000e1e:    2700        .'      MOVS     r7,#0
        0x00000e20:    e01f        ..      B        0xe62 ; LoadImg + 94
        0x00000e22:    1e60        `.      SUBS     r0,r4,#1
        0x00000e24:    2103        .!      MOVS     r1,#3
        0x00000e26:    f7fffaa3    ....    BL       __aeabi_idiv ; 0x370
        0x00000e2a:    2028        (       MOVS     r0,#0x28
        0x00000e2c:    4341        AC      MULS     r1,r0,r1
        0x00000e2e:    17e0        ..      ASRS     r0,r4,#31
        0x00000e30:    0f80        ..      LSRS     r0,r0,#30
        0x00000e32:    1900        ..      ADDS     r0,r0,r4
        0x00000e34:    1080        ..      ASRS     r0,r0,#2
        0x00000e36:    0240        @.      LSLS     r0,r0,#9
        0x00000e38:    01f2        ..      LSLS     r2,r6,#7
        0x00000e3a:    1880        ..      ADDS     r0,r0,r2
        0x00000e3c:    180d        ..      ADDS     r5,r1,r0
        0x00000e3e:    1e60        `.      SUBS     r0,r4,#1
        0x00000e40:    2103        .!      MOVS     r1,#3
        0x00000e42:    9400        ..      STR      r4,[sp,#0]
        0x00000e44:    f7fffa94    ....    BL       __aeabi_idiv ; 0x370
        0x00000e48:    1c49        I.      ADDS     r1,r1,#1
        0x00000e4a:    0048        H.      LSLS     r0,r1,#1
        0x00000e4c:    1828        (.      ADDS     r0,r5,r0
        0x00000e4e:    19c1        ..      ADDS     r1,r0,r7
        0x00000e50:    4a35        5J      LDR      r2,[pc,#212] ; [0xf28] = 0x200007fc
        0x00000e52:    2028        (       MOVS     r0,#0x28
        0x00000e54:    4370        pC      MULS     r0,r6,r0
        0x00000e56:    19c0        ..      ADDS     r0,r0,r7
        0x00000e58:    4b34        4K      LDR      r3,[pc,#208] ; [0xf2c] = 0x2000074c
        0x00000e5a:    5c18        .\      LDRB     r0,[r3,r0]
        0x00000e5c:    5450        PT      STRB     r0,[r2,r1]
        0x00000e5e:    1c78        x.      ADDS     r0,r7,#1
        0x00000e60:    b2c7        ..      UXTB     r7,r0
        0x00000e62:    2f28        (/      CMP      r7,#0x28
        0x00000e64:    dbdd        ..      BLT      0xe22 ; LoadImg + 30
        0x00000e66:    1c70        p.      ADDS     r0,r6,#1
        0x00000e68:    b2c6        ..      UXTB     r6,r0
        0x00000e6a:    2e04        ..      CMP      r6,#4
        0x00000e6c:    dbd7        ..      BLT      0xe1e ; LoadImg + 26
        0x00000e6e:    e058        X.      B        0xf22 ; LoadImg + 286
        0x00000e70:    2600        .&      MOVS     r6,#0
        0x00000e72:    e025        %.      B        0xec0 ; LoadImg + 188
        0x00000e74:    2700        .'      MOVS     r7,#0
        0x00000e76:    e01f        ..      B        0xeb8 ; LoadImg + 180
        0x00000e78:    1e60        `.      SUBS     r0,r4,#1
        0x00000e7a:    2103        .!      MOVS     r1,#3
        0x00000e7c:    f7fffa78    ..x.    BL       __aeabi_idiv ; 0x370
        0x00000e80:    2028        (       MOVS     r0,#0x28
        0x00000e82:    4341        AC      MULS     r1,r0,r1
        0x00000e84:    17e0        ..      ASRS     r0,r4,#31
        0x00000e86:    0f80        ..      LSRS     r0,r0,#30
        0x00000e88:    1900        ..      ADDS     r0,r0,r4
        0x00000e8a:    1080        ..      ASRS     r0,r0,#2
        0x00000e8c:    0240        @.      LSLS     r0,r0,#9
        0x00000e8e:    01f2        ..      LSLS     r2,r6,#7
        0x00000e90:    1880        ..      ADDS     r0,r0,r2
        0x00000e92:    180d        ..      ADDS     r5,r1,r0
        0x00000e94:    1e60        `.      SUBS     r0,r4,#1
        0x00000e96:    2103        .!      MOVS     r1,#3
        0x00000e98:    9400        ..      STR      r4,[sp,#0]
        0x00000e9a:    f7fffa69    ..i.    BL       __aeabi_idiv ; 0x370
        0x00000e9e:    1c49        I.      ADDS     r1,r1,#1
        0x00000ea0:    0048        H.      LSLS     r0,r1,#1
        0x00000ea2:    1828        (.      ADDS     r0,r5,r0
        0x00000ea4:    19c1        ..      ADDS     r1,r0,r7
        0x00000ea6:    4a20         J      LDR      r2,[pc,#128] ; [0xf28] = 0x200007fc
        0x00000ea8:    2028        (       MOVS     r0,#0x28
        0x00000eaa:    4370        pC      MULS     r0,r6,r0
        0x00000eac:    19c0        ..      ADDS     r0,r0,r7
        0x00000eae:    4b20         K      LDR      r3,[pc,#128] ; [0xf30] = 0x2000060c
        0x00000eb0:    5c18        .\      LDRB     r0,[r3,r0]
        0x00000eb2:    5450        PT      STRB     r0,[r2,r1]
        0x00000eb4:    1c78        x.      ADDS     r0,r7,#1
        0x00000eb6:    b2c7        ..      UXTB     r7,r0
        0x00000eb8:    2f28        (/      CMP      r7,#0x28
        0x00000eba:    dbdd        ..      BLT      0xe78 ; LoadImg + 116
        0x00000ebc:    1c70        p.      ADDS     r0,r6,#1
        0x00000ebe:    b2c6        ..      UXTB     r6,r0
        0x00000ec0:    2e04        ..      CMP      r6,#4
        0x00000ec2:    dbd7        ..      BLT      0xe74 ; LoadImg + 112
        0x00000ec4:    e02d        -.      B        0xf22 ; LoadImg + 286
        0x00000ec6:    2600        .&      MOVS     r6,#0
        0x00000ec8:    e027        '.      B        0xf1a ; LoadImg + 278
        0x00000eca:    2700        .'      MOVS     r7,#0
        0x00000ecc:    e01f        ..      B        0xf0e ; LoadImg + 266
        0x00000ece:    1e60        `.      SUBS     r0,r4,#1
        0x00000ed0:    2103        .!      MOVS     r1,#3
        0x00000ed2:    f7fffa4d    ..M.    BL       __aeabi_idiv ; 0x370
        0x00000ed6:    2028        (       MOVS     r0,#0x28
        0x00000ed8:    4341        AC      MULS     r1,r0,r1
        0x00000eda:    17e0        ..      ASRS     r0,r4,#31
        0x00000edc:    0f80        ..      LSRS     r0,r0,#30
        0x00000ede:    1900        ..      ADDS     r0,r0,r4
        0x00000ee0:    1080        ..      ASRS     r0,r0,#2
        0x00000ee2:    0240        @.      LSLS     r0,r0,#9
        0x00000ee4:    01f2        ..      LSLS     r2,r6,#7
        0x00000ee6:    1880        ..      ADDS     r0,r0,r2
        0x00000ee8:    180d        ..      ADDS     r5,r1,r0
        0x00000eea:    1e60        `.      SUBS     r0,r4,#1
        0x00000eec:    2103        .!      MOVS     r1,#3
        0x00000eee:    9400        ..      STR      r4,[sp,#0]
        0x00000ef0:    f7fffa3e    ..>.    BL       __aeabi_idiv ; 0x370
        0x00000ef4:    1c49        I.      ADDS     r1,r1,#1
        0x00000ef6:    0048        H.      LSLS     r0,r1,#1
        0x00000ef8:    1828        (.      ADDS     r0,r5,r0
        0x00000efa:    19c1        ..      ADDS     r1,r0,r7
        0x00000efc:    4a0a        .J      LDR      r2,[pc,#40] ; [0xf28] = 0x200007fc
        0x00000efe:    2028        (       MOVS     r0,#0x28
        0x00000f00:    4370        pC      MULS     r0,r6,r0
        0x00000f02:    19c0        ..      ADDS     r0,r0,r7
        0x00000f04:    4b0b        .K      LDR      r3,[pc,#44] ; [0xf34] = 0x200006ac
        0x00000f06:    5c18        .\      LDRB     r0,[r3,r0]
        0x00000f08:    5450        PT      STRB     r0,[r2,r1]
        0x00000f0a:    1c78        x.      ADDS     r0,r7,#1
        0x00000f0c:    b2c7        ..      UXTB     r7,r0
        0x00000f0e:    2f28        (/      CMP      r7,#0x28
        0x00000f10:    dbdd        ..      BLT      0xece ; LoadImg + 202
        0x00000f12:    1c70        p.      ADDS     r0,r6,#1
        0x00000f14:    e000        ..      B        0xf18 ; LoadImg + 276
        0x00000f16:    e003        ..      B        0xf20 ; LoadImg + 284
        0x00000f18:    b2c6        ..      UXTB     r6,r0
        0x00000f1a:    2e04        ..      CMP      r6,#4
        0x00000f1c:    dbd5        ..      BLT      0xeca ; LoadImg + 198
        0x00000f1e:    e000        ..      B        0xf22 ; LoadImg + 286
        0x00000f20:    bf00        ..      NOP      
        0x00000f22:    bf00        ..      NOP      
        0x00000f24:    bdfe        ..      POP      {r1-r7,pc}
    $d
        0x00000f26:    0000        ..      DCW    0
        0x00000f28:    200007fc    ...     DCD    536872956
        0x00000f2c:    2000074c    L..     DCD    536872780
        0x00000f30:    2000060c    ...     DCD    536872460
        0x00000f34:    200006ac    ...     DCD    536872620
    $t
    i.LoadIndex
    LoadIndex
        0x00000f38:    b510        ..      PUSH     {r4,lr}
        0x00000f3a:    f7fffe3d    ..=.    BL       Initial_panel ; 0xbb8
        0x00000f3e:    f000f99f    ....    BL       clr_all_panel ; 0x1280
        0x00000f42:    a104        ..      ADR      r1,{pc}+0x12 ; 0xf54
        0x00000f44:    2001        .       MOVS     r0,#1
        0x00000f46:    f000fad5    ....    BL       print_lcd ; 0x14f4
        0x00000f4a:    a106        ..      ADR      r1,{pc}+0x1a ; 0xf64
        0x00000f4c:    2002        .       MOVS     r0,#2
        0x00000f4e:    f000fad1    ....    BL       print_lcd ; 0x14f4
        0x00000f52:    bd10        ..      POP      {r4,pc}
    $d
        0x00000f54:    63616857    Whac    DCD    1667328087
        0x00000f58:    2d412d6b    k-A-    DCD    759246187
        0x00000f5c:    656c6f4d    Mole    DCD    1701605197
        0x00000f60:    00000021    !...    DCD    33
        0x00000f64:    72617453    Star    DCD    1918989395
        0x00000f68:    2d2d2074    t --    DCD    757932148
        0x00000f6c:    203e2d2d    -->     DCD    540945709
        0x00000f70:    00000031    1...    DCD    49
    $t
    i.Loadres
    Loadres
        0x00000f74:    b51f        ..      PUSH     {r0-r4,lr}
        0x00000f76:    4604        .F      MOV      r4,r0
        0x00000f78:    4b0f        .K      LDR      r3,[pc,#60] ; [0xfb8] = 0x1650
        0x00000f7a:    cb0f        ..      LDM      r3,{r0-r3}
        0x00000f7c:    9303        ..      STR      r3,[sp,#0xc]
        0x00000f7e:    466b        kF      MOV      r3,sp
        0x00000f80:    c307        ..      STM      r3!,{r0-r2}
        0x00000f82:    f7fffe19    ....    BL       Initial_panel ; 0xbb8
        0x00000f86:    f000f97b    ..{.    BL       clr_all_panel ; 0x1280
        0x00000f8a:    a10c        ..      ADR      r1,{pc}+0x32 ; 0xfbc
        0x00000f8c:    2000        .       MOVS     r0,#0
        0x00000f8e:    f000fab1    ....    BL       print_lcd ; 0x14f4
        0x00000f92:    4622        "F      MOV      r2,r4
        0x00000f94:    a10c        ..      ADR      r1,{pc}+0x34 ; 0xfc8
        0x00000f96:    a802        ..      ADD      r0,sp,#8
        0x00000f98:    3003        .0      ADDS     r0,#3
        0x00000f9a:    f7fff93d    ..=.    BL       __2sprintf ; 0x218
        0x00000f9e:    4669        iF      MOV      r1,sp
        0x00000fa0:    2001        .       MOVS     r0,#1
        0x00000fa2:    f000faa7    ....    BL       print_lcd ; 0x14f4
        0x00000fa6:    a109        ..      ADR      r1,{pc}+0x26 ; 0xfcc
        0x00000fa8:    2002        .       MOVS     r0,#2
        0x00000faa:    f000faa3    ....    BL       print_lcd ; 0x14f4
        0x00000fae:    a10c        ..      ADR      r1,{pc}+0x32 ; 0xfe0
        0x00000fb0:    2003        .       MOVS     r0,#3
        0x00000fb2:    f000fa9f    ....    BL       print_lcd ; 0x14f4
        0x00000fb6:    bd1f        ..      POP      {r0-r4,pc}
    $d
        0x00000fb8:    00001650    P...    DCD    5712
        0x00000fbc:    656d6147    Game    DCD    1701667143
        0x00000fc0:    65764f20     Ove    DCD    1702252320
        0x00000fc4:    00000072    r...    DCD    114
        0x00000fc8:    00006425    %d..    DCD    25637
        0x00000fcc:    746e6f43    Cont    DCD    1953394499
        0x00000fd0:    65756e69    inue    DCD    1702194793
        0x00000fd4:    2d2d203f    ? --    DCD    757932095
        0x00000fd8:    31203e2d    -> 1    DCD    824196653
        0x00000fdc:    00000000    ....    DCD    0
        0x00000fe0:    6b636142    Back    DCD    1801675074
        0x00000fe4:    6f486f54    ToHo    DCD    1867018068
        0x00000fe8:    2d20656d    me -    DCD    757097837
        0x00000fec:    32203e2d    -> 2    DCD    840973869
        0x00000ff0:    00000000    ....    DCD    0
    $t
    i.OpenKeyPad
    OpenKeyPad
        0x00000ff4:    b510        ..      PUSH     {r4,lr}
        0x00000ff6:    2400        .$      MOVS     r4,#0
        0x00000ff8:    e006        ..      B        0x1008 ; OpenKeyPad + 20
        0x00000ffa:    2203        ."      MOVS     r2,#3
        0x00000ffc:    4621        !F      MOV      r1,r4
        0x00000ffe:    2000        .       MOVS     r0,#0
        0x00001000:    f7fffd10    ....    BL       DrvGPIO_Open ; 0xa24
        0x00001004:    1c60        `.      ADDS     r0,r4,#1
        0x00001006:    b2c4        ..      UXTB     r4,r0
        0x00001008:    2c06        .,      CMP      r4,#6
        0x0000100a:    dbf6        ..      BLT      0xffa ; OpenKeyPad + 6
        0x0000100c:    bd10        ..      POP      {r4,pc}
        0x0000100e:    0000        ..      MOVS     r0,r0
    i.Scankey
    Scankey
        0x00001010:    b5f8        ..      PUSH     {r3-r7,lr}
        0x00001012:    481f        .H      LDR      r0,[pc,#124] ; [0x1090] = 0x164c
        0x00001014:    6800        .h      LDR      r0,[r0,#0]
        0x00001016:    9000        ..      STR      r0,[sp,#0]
        0x00001018:    2400        .$      MOVS     r4,#0
        0x0000101a:    e034        4.      B        0x1086 ; Scankey + 118
        0x0000101c:    4668        hF      MOV      r0,sp
        0x0000101e:    5d06        .]      LDRB     r6,[r0,r4]
        0x00001020:    2500        .%      MOVS     r5,#0
        0x00001022:    e00f        ..      B        0x1044 ; Scankey + 52
        0x00001024:    07f0        ..      LSLS     r0,r6,#31
        0x00001026:    0fc0        ..      LSRS     r0,r0,#31
        0x00001028:    2801        .(      CMP      r0,#1
        0x0000102a:    d104        ..      BNE      0x1036 ; Scankey + 38
        0x0000102c:    4629        )F      MOV      r1,r5
        0x0000102e:    2000        .       MOVS     r0,#0
        0x00001030:    f7fffd34    ..4.    BL       DrvGPIO_SetBit ; 0xa9c
        0x00001034:    e003        ..      B        0x103e ; Scankey + 46
        0x00001036:    4629        )F      MOV      r1,r5
        0x00001038:    2000        .       MOVS     r0,#0
        0x0000103a:    f7fffcc9    ....    BL       DrvGPIO_ClrBit ; 0x9d0
        0x0000103e:    1076        v.      ASRS     r6,r6,#1
        0x00001040:    1c68        h.      ADDS     r0,r5,#1
        0x00001042:    b2c5        ..      UXTB     r5,r0
        0x00001044:    2d06        .-      CMP      r5,#6
        0x00001046:    dbed        ..      BLT      0x1024 ; Scankey + 20
        0x00001048:    f000f92e    ....    BL       delay ; 0x12a8
        0x0000104c:    2103        .!      MOVS     r1,#3
        0x0000104e:    2000        .       MOVS     r0,#0
        0x00001050:    f7fffcd4    ....    BL       DrvGPIO_GetBit ; 0x9fc
        0x00001054:    2800        .(      CMP      r0,#0
        0x00001056:    d102        ..      BNE      0x105e ; Scankey + 78
        0x00001058:    1c60        `.      ADDS     r0,r4,#1
        0x0000105a:    b2c0        ..      UXTB     r0,r0
        0x0000105c:    bdf8        ..      POP      {r3-r7,pc}
        0x0000105e:    2104        .!      MOVS     r1,#4
        0x00001060:    2000        .       MOVS     r0,#0
        0x00001062:    f7fffccb    ....    BL       DrvGPIO_GetBit ; 0x9fc
        0x00001066:    2800        .(      CMP      r0,#0
        0x00001068:    d102        ..      BNE      0x1070 ; Scankey + 96
        0x0000106a:    1d20         .      ADDS     r0,r4,#4
        0x0000106c:    b2c0        ..      UXTB     r0,r0
        0x0000106e:    e7f5        ..      B        0x105c ; Scankey + 76
        0x00001070:    2105        .!      MOVS     r1,#5
        0x00001072:    2000        .       MOVS     r0,#0
        0x00001074:    f7fffcc2    ....    BL       DrvGPIO_GetBit ; 0x9fc
        0x00001078:    2800        .(      CMP      r0,#0
        0x0000107a:    d102        ..      BNE      0x1082 ; Scankey + 114
        0x0000107c:    1de0        ..      ADDS     r0,r4,#7
        0x0000107e:    b2c0        ..      UXTB     r0,r0
        0x00001080:    e7ec        ..      B        0x105c ; Scankey + 76
        0x00001082:    1c60        `.      ADDS     r0,r4,#1
        0x00001084:    b2c4        ..      UXTB     r4,r0
        0x00001086:    2c03        .,      CMP      r4,#3
        0x00001088:    dbc8        ..      BLT      0x101c ; Scankey + 12
        0x0000108a:    2000        .       MOVS     r0,#0
        0x0000108c:    e7e6        ..      B        0x105c ; Scankey + 76
    $d
        0x0000108e:    0000        ..      DCW    0
        0x00001090:    0000164c    L...    DCD    5708
    $t
    i.SetPACA
    SetPACA
        0x00001094:    4a3b        ;J      LDR      r2,[pc,#236] ; [0x1184] = 0x200005fc
        0x00001096:    68d2        .h      LDR      r2,[r2,#0xc]
        0x00001098:    6892        .h      LDR      r2,[r2,#8]
        0x0000109a:    0892        ..      LSRS     r2,r2,#2
        0x0000109c:    0092        ..      LSLS     r2,r2,#2
        0x0000109e:    1c52        R.      ADDS     r2,r2,#1
        0x000010a0:    4b38        8K      LDR      r3,[pc,#224] ; [0x1184] = 0x200005fc
        0x000010a2:    68db        .h      LDR      r3,[r3,#0xc]
        0x000010a4:    609a        .`      STR      r2,[r3,#8]
        0x000010a6:    22b0        ."      MOVS     r2,#0xb0
        0x000010a8:    4302        .C      ORRS     r2,r2,r0
        0x000010aa:    4b36        6K      LDR      r3,[pc,#216] ; [0x1184] = 0x200005fc
        0x000010ac:    68db        .h      LDR      r3,[r3,#0xc]
        0x000010ae:    621a        .b      STR      r2,[r3,#0x20]
        0x000010b0:    4a34        4J      LDR      r2,[pc,#208] ; [0x1184] = 0x200005fc
        0x000010b2:    68d2        .h      LDR      r2,[r2,#0xc]
        0x000010b4:    6812        .h      LDR      r2,[r2,#0]
        0x000010b6:    0852        R.      LSRS     r2,r2,#1
        0x000010b8:    0052        R.      LSLS     r2,r2,#1
        0x000010ba:    1c52        R.      ADDS     r2,r2,#1
        0x000010bc:    4b31        1K      LDR      r3,[pc,#196] ; [0x1184] = 0x200005fc
        0x000010be:    68db        .h      LDR      r3,[r3,#0xc]
        0x000010c0:    601a        .`      STR      r2,[r3,#0]
        0x000010c2:    bf00        ..      NOP      
        0x000010c4:    4a2f        /J      LDR      r2,[pc,#188] ; [0x1184] = 0x200005fc
        0x000010c6:    68d2        .h      LDR      r2,[r2,#0xc]
        0x000010c8:    6812        .h      LDR      r2,[r2,#0]
        0x000010ca:    07d2        ..      LSLS     r2,r2,#31
        0x000010cc:    0fd2        ..      LSRS     r2,r2,#31
        0x000010ce:    2a01        .*      CMP      r2,#1
        0x000010d0:    d0f8        ..      BEQ      0x10c4 ; SetPACA + 48
        0x000010d2:    4a2c        ,J      LDR      r2,[pc,#176] ; [0x1184] = 0x200005fc
        0x000010d4:    68d2        .h      LDR      r2,[r2,#0xc]
        0x000010d6:    6892        .h      LDR      r2,[r2,#8]
        0x000010d8:    0892        ..      LSRS     r2,r2,#2
        0x000010da:    0092        ..      LSLS     r2,r2,#2
        0x000010dc:    4b29        )K      LDR      r3,[pc,#164] ; [0x1184] = 0x200005fc
        0x000010de:    68db        .h      LDR      r3,[r3,#0xc]
        0x000010e0:    609a        .`      STR      r2,[r3,#8]
        0x000010e2:    4a28        (J      LDR      r2,[pc,#160] ; [0x1184] = 0x200005fc
        0x000010e4:    68d2        .h      LDR      r2,[r2,#0xc]
        0x000010e6:    6892        .h      LDR      r2,[r2,#8]
        0x000010e8:    0892        ..      LSRS     r2,r2,#2
        0x000010ea:    0092        ..      LSLS     r2,r2,#2
        0x000010ec:    1c52        R.      ADDS     r2,r2,#1
        0x000010ee:    4b25        %K      LDR      r3,[pc,#148] ; [0x1184] = 0x200005fc
        0x000010f0:    68db        .h      LDR      r3,[r3,#0xc]
        0x000010f2:    609a        .`      STR      r2,[r3,#8]
        0x000010f4:    110a        ..      ASRS     r2,r1,#4
        0x000010f6:    2310        .#      MOVS     r3,#0x10
        0x000010f8:    431a        .C      ORRS     r2,r2,r3
        0x000010fa:    4b22        "K      LDR      r3,[pc,#136] ; [0x1184] = 0x200005fc
        0x000010fc:    68db        .h      LDR      r3,[r3,#0xc]
        0x000010fe:    621a        .b      STR      r2,[r3,#0x20]
        0x00001100:    4a20         J      LDR      r2,[pc,#128] ; [0x1184] = 0x200005fc
        0x00001102:    68d2        .h      LDR      r2,[r2,#0xc]
        0x00001104:    6812        .h      LDR      r2,[r2,#0]
        0x00001106:    0852        R.      LSRS     r2,r2,#1
        0x00001108:    0052        R.      LSLS     r2,r2,#1
        0x0000110a:    1c52        R.      ADDS     r2,r2,#1
        0x0000110c:    4b1d        .K      LDR      r3,[pc,#116] ; [0x1184] = 0x200005fc
        0x0000110e:    68db        .h      LDR      r3,[r3,#0xc]
        0x00001110:    601a        .`      STR      r2,[r3,#0]
        0x00001112:    bf00        ..      NOP      
        0x00001114:    4a1b        .J      LDR      r2,[pc,#108] ; [0x1184] = 0x200005fc
        0x00001116:    68d2        .h      LDR      r2,[r2,#0xc]
        0x00001118:    6812        .h      LDR      r2,[r2,#0]
        0x0000111a:    07d2        ..      LSLS     r2,r2,#31
        0x0000111c:    0fd2        ..      LSRS     r2,r2,#31
        0x0000111e:    2a01        .*      CMP      r2,#1
        0x00001120:    d0f8        ..      BEQ      0x1114 ; SetPACA + 128
        0x00001122:    4a18        .J      LDR      r2,[pc,#96] ; [0x1184] = 0x200005fc
        0x00001124:    68d2        .h      LDR      r2,[r2,#0xc]
        0x00001126:    6892        .h      LDR      r2,[r2,#8]
        0x00001128:    0892        ..      LSRS     r2,r2,#2
        0x0000112a:    0092        ..      LSLS     r2,r2,#2
        0x0000112c:    4b15        .K      LDR      r3,[pc,#84] ; [0x1184] = 0x200005fc
        0x0000112e:    68db        .h      LDR      r3,[r3,#0xc]
        0x00001130:    609a        .`      STR      r2,[r3,#8]
        0x00001132:    4a14        .J      LDR      r2,[pc,#80] ; [0x1184] = 0x200005fc
        0x00001134:    68d2        .h      LDR      r2,[r2,#0xc]
        0x00001136:    6892        .h      LDR      r2,[r2,#8]
        0x00001138:    0892        ..      LSRS     r2,r2,#2
        0x0000113a:    0092        ..      LSLS     r2,r2,#2
        0x0000113c:    1c52        R.      ADDS     r2,r2,#1
        0x0000113e:    4b11        .K      LDR      r3,[pc,#68] ; [0x1184] = 0x200005fc
        0x00001140:    68db        .h      LDR      r3,[r3,#0xc]
        0x00001142:    609a        .`      STR      r2,[r3,#8]
        0x00001144:    070a        ..      LSLS     r2,r1,#28
        0x00001146:    0f12        ..      LSRS     r2,r2,#28
        0x00001148:    4b0e        .K      LDR      r3,[pc,#56] ; [0x1184] = 0x200005fc
        0x0000114a:    68db        .h      LDR      r3,[r3,#0xc]
        0x0000114c:    621a        .b      STR      r2,[r3,#0x20]
        0x0000114e:    4a0d        .J      LDR      r2,[pc,#52] ; [0x1184] = 0x200005fc
        0x00001150:    68d2        .h      LDR      r2,[r2,#0xc]
        0x00001152:    6812        .h      LDR      r2,[r2,#0]
        0x00001154:    0852        R.      LSRS     r2,r2,#1
        0x00001156:    0052        R.      LSLS     r2,r2,#1
        0x00001158:    1c52        R.      ADDS     r2,r2,#1
        0x0000115a:    4b0a        .K      LDR      r3,[pc,#40] ; [0x1184] = 0x200005fc
        0x0000115c:    68db        .h      LDR      r3,[r3,#0xc]
        0x0000115e:    601a        .`      STR      r2,[r3,#0]
        0x00001160:    bf00        ..      NOP      
        0x00001162:    4a08        .J      LDR      r2,[pc,#32] ; [0x1184] = 0x200005fc
        0x00001164:    68d2        .h      LDR      r2,[r2,#0xc]
        0x00001166:    6812        .h      LDR      r2,[r2,#0]
        0x00001168:    07d2        ..      LSLS     r2,r2,#31
        0x0000116a:    0fd2        ..      LSRS     r2,r2,#31
        0x0000116c:    2a01        .*      CMP      r2,#1
        0x0000116e:    d0f8        ..      BEQ      0x1162 ; SetPACA + 206
        0x00001170:    4a04        .J      LDR      r2,[pc,#16] ; [0x1184] = 0x200005fc
        0x00001172:    68d2        .h      LDR      r2,[r2,#0xc]
        0x00001174:    6892        .h      LDR      r2,[r2,#8]
        0x00001176:    0892        ..      LSRS     r2,r2,#2
        0x00001178:    0092        ..      LSLS     r2,r2,#2
        0x0000117a:    4b02        .K      LDR      r3,[pc,#8] ; [0x1184] = 0x200005fc
        0x0000117c:    68db        .h      LDR      r3,[r3,#0xc]
        0x0000117e:    609a        .`      STR      r2,[r3,#8]
        0x00001180:    4770        pG      BX       lr
    $d
        0x00001182:    0000        ..      DCW    0
        0x00001184:    200005fc    ...     DCD    536872444
    $t
    i.Show_Word
    Show_Word
        0x00001188:    b5fc        ..      PUSH     {r2-r7,lr}
        0x0000118a:    4605        .F      MOV      r5,r0
        0x0000118c:    460e        .F      MOV      r6,r1
        0x0000118e:    4617        .F      MOV      r7,r2
        0x00001190:    2400        .$      MOVS     r4,#0
        0x00001192:    2000        .       MOVS     r0,#0
        0x00001194:    9001        ..      STR      r0,[sp,#4]
        0x00001196:    4638        8F      MOV      r0,r7
        0x00001198:    3820         8      SUBS     r0,r0,#0x20
        0x0000119a:    0100        ..      LSLS     r0,r0,#4
        0x0000119c:    9001        ..      STR      r0,[sp,#4]
        0x0000119e:    bf00        ..      NOP      
        0x000011a0:    e011        ..      B        0x11c6 ; Show_Word + 62
        0x000011a2:    00f2        ..      LSLS     r2,r6,#3
        0x000011a4:    2381        .#      MOVS     r3,#0x81
        0x000011a6:    1a9a        ..      SUBS     r2,r3,r2
        0x000011a8:    1b12        ..      SUBS     r2,r2,r4
        0x000011aa:    b2d1        ..      UXTB     r1,r2
        0x000011ac:    066a        j.      LSLS     r2,r5,#25
        0x000011ae:    0e10        ..      LSRS     r0,r2,#24
        0x000011b0:    f7ffff70    ..p.    BL       SetPACA ; 0x1094
        0x000011b4:    9801        ..      LDR      r0,[sp,#4]
        0x000011b6:    1900        ..      ADDS     r0,r0,r4
        0x000011b8:    4910        .I      LDR      r1,[pc,#64] ; [0x11fc] = 0x20000000
        0x000011ba:    5c08        .\      LDRB     r0,[r1,r0]
        0x000011bc:    9000        ..      STR      r0,[sp,#0]
        0x000011be:    9800        ..      LDR      r0,[sp,#0]
        0x000011c0:    f000f820    .. .    BL       WriteData ; 0x1204
        0x000011c4:    1c64        d.      ADDS     r4,r4,#1
        0x000011c6:    2c08        .,      CMP      r4,#8
        0x000011c8:    dbeb        ..      BLT      0x11a2 ; Show_Word + 26
        0x000011ca:    2400        .$      MOVS     r4,#0
        0x000011cc:    e013        ..      B        0x11f6 ; Show_Word + 110
        0x000011ce:    00f2        ..      LSLS     r2,r6,#3
        0x000011d0:    2381        .#      MOVS     r3,#0x81
        0x000011d2:    1a9a        ..      SUBS     r2,r3,r2
        0x000011d4:    1b12        ..      SUBS     r2,r2,r4
        0x000011d6:    b2d1        ..      UXTB     r1,r2
        0x000011d8:    006a        j.      LSLS     r2,r5,#1
        0x000011da:    1c52        R.      ADDS     r2,r2,#1
        0x000011dc:    b2d0        ..      UXTB     r0,r2
        0x000011de:    f7ffff59    ..Y.    BL       SetPACA ; 0x1094
        0x000011e2:    9801        ..      LDR      r0,[sp,#4]
        0x000011e4:    1900        ..      ADDS     r0,r0,r4
        0x000011e6:    3008        .0      ADDS     r0,r0,#8
        0x000011e8:    4904        .I      LDR      r1,[pc,#16] ; [0x11fc] = 0x20000000
        0x000011ea:    5c08        .\      LDRB     r0,[r1,r0]
        0x000011ec:    9000        ..      STR      r0,[sp,#0]
        0x000011ee:    9800        ..      LDR      r0,[sp,#0]
        0x000011f0:    f000f808    ....    BL       WriteData ; 0x1204
        0x000011f4:    1c64        d.      ADDS     r4,r4,#1
        0x000011f6:    2c08        .,      CMP      r4,#8
        0x000011f8:    dbe9        ..      BLT      0x11ce ; Show_Word + 70
        0x000011fa:    bdfc        ..      POP      {r2-r7,pc}
    $d
        0x000011fc:    20000000    ...     DCD    536870912
    $t
    i.SystemInit
    SystemInit
        0x00001200:    4770        pG      BX       lr
        0x00001202:    0000        ..      MOVS     r0,r0
    i.WriteData
    WriteData
        0x00001204:    4914        .I      LDR      r1,[pc,#80] ; [0x1258] = 0x200005fc
        0x00001206:    68c9        .h      LDR      r1,[r1,#0xc]
        0x00001208:    6889        .h      LDR      r1,[r1,#8]
        0x0000120a:    0889        ..      LSRS     r1,r1,#2
        0x0000120c:    0089        ..      LSLS     r1,r1,#2
        0x0000120e:    1c49        I.      ADDS     r1,r1,#1
        0x00001210:    4a11        .J      LDR      r2,[pc,#68] ; [0x1258] = 0x200005fc
        0x00001212:    68d2        .h      LDR      r2,[r2,#0xc]
        0x00001214:    6091        .`      STR      r1,[r2,#8]
        0x00001216:    21ff        .!      MOVS     r1,#0xff
        0x00001218:    3101        .1      ADDS     r1,#1
        0x0000121a:    4301        .C      ORRS     r1,r1,r0
        0x0000121c:    4a0e        .J      LDR      r2,[pc,#56] ; [0x1258] = 0x200005fc
        0x0000121e:    68d2        .h      LDR      r2,[r2,#0xc]
        0x00001220:    6211        .b      STR      r1,[r2,#0x20]
        0x00001222:    490d        .I      LDR      r1,[pc,#52] ; [0x1258] = 0x200005fc
        0x00001224:    68c9        .h      LDR      r1,[r1,#0xc]
        0x00001226:    6809        .h      LDR      r1,[r1,#0]
        0x00001228:    0849        I.      LSRS     r1,r1,#1
        0x0000122a:    0049        I.      LSLS     r1,r1,#1
        0x0000122c:    1c49        I.      ADDS     r1,r1,#1
        0x0000122e:    4a0a        .J      LDR      r2,[pc,#40] ; [0x1258] = 0x200005fc
        0x00001230:    68d2        .h      LDR      r2,[r2,#0xc]
        0x00001232:    6011        .`      STR      r1,[r2,#0]
        0x00001234:    bf00        ..      NOP      
        0x00001236:    4908        .I      LDR      r1,[pc,#32] ; [0x1258] = 0x200005fc
        0x00001238:    68c9        .h      LDR      r1,[r1,#0xc]
        0x0000123a:    6809        .h      LDR      r1,[r1,#0]
        0x0000123c:    07c9        ..      LSLS     r1,r1,#31
        0x0000123e:    0fc9        ..      LSRS     r1,r1,#31
        0x00001240:    2901        .)      CMP      r1,#1
        0x00001242:    d0f8        ..      BEQ      0x1236 ; WriteData + 50
        0x00001244:    4904        .I      LDR      r1,[pc,#16] ; [0x1258] = 0x200005fc
        0x00001246:    68c9        .h      LDR      r1,[r1,#0xc]
        0x00001248:    6889        .h      LDR      r1,[r1,#8]
        0x0000124a:    0889        ..      LSRS     r1,r1,#2
        0x0000124c:    0089        ..      LSLS     r1,r1,#2
        0x0000124e:    4a02        .J      LDR      r2,[pc,#8] ; [0x1258] = 0x200005fc
        0x00001250:    68d2        .h      LDR      r2,[r2,#0xc]
        0x00001252:    6091        .`      STR      r1,[r2,#8]
        0x00001254:    4770        pG      BX       lr
    $d
        0x00001256:    0000        ..      DCW    0
        0x00001258:    200005fc    ...     DCD    536872444
    $t
    i.close_seven_segment
    close_seven_segment
        0x0000125c:    b510        ..      PUSH     {r4,lr}
        0x0000125e:    2104        .!      MOVS     r1,#4
        0x00001260:    2002        .       MOVS     r0,#2
        0x00001262:    f7fffbb5    ....    BL       DrvGPIO_ClrBit ; 0x9d0
        0x00001266:    2105        .!      MOVS     r1,#5
        0x00001268:    2002        .       MOVS     r0,#2
        0x0000126a:    f7fffbb1    ....    BL       DrvGPIO_ClrBit ; 0x9d0
        0x0000126e:    2106        .!      MOVS     r1,#6
        0x00001270:    2002        .       MOVS     r0,#2
        0x00001272:    f7fffbad    ....    BL       DrvGPIO_ClrBit ; 0x9d0
        0x00001276:    2107        .!      MOVS     r1,#7
        0x00001278:    2002        .       MOVS     r0,#2
        0x0000127a:    f7fffba9    ....    BL       DrvGPIO_ClrBit ; 0x9d0
        0x0000127e:    bd10        ..      POP      {r4,pc}
    i.clr_all_panel
    clr_all_panel
        0x00001280:    b510        ..      PUSH     {r4,lr}
        0x00001282:    2400        .$      MOVS     r4,#0
        0x00001284:    2100        .!      MOVS     r1,#0
        0x00001286:    4608        .F      MOV      r0,r1
        0x00001288:    f7ffff04    ....    BL       SetPACA ; 0x1094
        0x0000128c:    bf00        ..      NOP      
        0x0000128e:    e003        ..      B        0x1298 ; clr_all_panel + 24
        0x00001290:    2000        .       MOVS     r0,#0
        0x00001292:    f7ffffb7    ....    BL       WriteData ; 0x1204
        0x00001296:    1c64        d.      ADDS     r4,r4,#1
        0x00001298:    2021        !       MOVS     r0,#0x21
        0x0000129a:    0140        @.      LSLS     r0,r0,#5
        0x0000129c:    4284        .B      CMP      r4,r0
        0x0000129e:    dbf7        ..      BLT      0x1290 ; clr_all_panel + 16
        0x000012a0:    200f        .       MOVS     r0,#0xf
        0x000012a2:    f7ffffaf    ....    BL       WriteData ; 0x1204
        0x000012a6:    bd10        ..      POP      {r4,pc}
    i.delay
    delay
        0x000012a8:    2000        .       MOVS     r0,#0
        0x000012aa:    e000        ..      B        0x12ae ; delay + 6
        0x000012ac:    1c40        @.      ADDS     r0,r0,#1
        0x000012ae:    217d        }!      MOVS     r1,#0x7d
        0x000012b0:    00c9        ..      LSLS     r1,r1,#3
        0x000012b2:    4288        .B      CMP      r0,r1
        0x000012b4:    dbfa        ..      BLT      0x12ac ; delay + 4
        0x000012b6:    4770        pG      BX       lr
    i.draw_LCD
    draw_LCD
        0x000012b8:    b5f8        ..      PUSH     {r3-r7,lr}
        0x000012ba:    4607        .F      MOV      r7,r0
        0x000012bc:    2640        @&      MOVS     r6,#0x40
        0x000012be:    2080        .       MOVS     r0,#0x80
        0x000012c0:    9000        ..      STR      r0,[sp,#0]
        0x000012c2:    2400        .$      MOVS     r4,#0
        0x000012c4:    2500        .%      MOVS     r5,#0
        0x000012c6:    bf00        ..      NOP      
        0x000012c8:    e014        ..      B        0x12f4 ; draw_LCD + 60
        0x000012ca:    2400        .$      MOVS     r4,#0
        0x000012cc:    e00b        ..      B        0x12e6 ; draw_LCD + 46
        0x000012ce:    2281        ."      MOVS     r2,#0x81
        0x000012d0:    1b52        R.      SUBS     r2,r2,r5
        0x000012d2:    b2d1        ..      UXTB     r1,r2
        0x000012d4:    b2e0        ..      UXTB     r0,r4
        0x000012d6:    f7fffedd    ....    BL       SetPACA ; 0x1094
        0x000012da:    00e9        ..      LSLS     r1,r5,#3
        0x000012dc:    1909        ..      ADDS     r1,r1,r4
        0x000012de:    5c78        x\      LDRB     r0,[r7,r1]
        0x000012e0:    f7ffff90    ....    BL       WriteData ; 0x1204
        0x000012e4:    1c64        d.      ADDS     r4,r4,#1
        0x000012e6:    17f1        ..      ASRS     r1,r6,#31
        0x000012e8:    0f49        I.      LSRS     r1,r1,#29
        0x000012ea:    1989        ..      ADDS     r1,r1,r6
        0x000012ec:    10c9        ..      ASRS     r1,r1,#3
        0x000012ee:    42a1        .B      CMP      r1,r4
        0x000012f0:    dced        ..      BGT      0x12ce ; draw_LCD + 22
        0x000012f2:    1c6d        m.      ADDS     r5,r5,#1
        0x000012f4:    9800        ..      LDR      r0,[sp,#0]
        0x000012f6:    4285        .B      CMP      r5,r0
        0x000012f8:    dbe7        ..      BLT      0x12ca ; draw_LCD + 18
        0x000012fa:    bdf8        ..      POP      {r3-r7,pc}
    i.main
    main
        0x000012fc:    b08a        ..      SUB      sp,sp,#0x28
        0x000012fe:    4877        wH      LDR      r0,[pc,#476] ; [0x14dc] = 0x44bb8000
        0x00001300:    9009        ..      STR      r0,[sp,#0x24]
        0x00001302:    2001        .       MOVS     r0,#1
        0x00001304:    9008        ..      STR      r0,[sp,#0x20]
        0x00001306:    9809        ..      LDR      r0,[sp,#0x24]
        0x00001308:    f7fffa84    ....    BL       __aeabi_f2iz ; 0x814
        0x0000130c:    b200        ..      SXTH     r0,r0
        0x0000130e:    9007        ..      STR      r0,[sp,#0x1c]
        0x00001310:    2102        .!      MOVS     r1,#2
        0x00001312:    9106        ..      STR      r1,[sp,#0x18]
        0x00001314:    2100        .!      MOVS     r1,#0
        0x00001316:    9105        ..      STR      r1,[sp,#0x14]
        0x00001318:    2401        .$      MOVS     r4,#1
        0x0000131a:    2000        .       MOVS     r0,#0
        0x0000131c:    9004        ..      STR      r0,[sp,#0x10]
        0x0000131e:    2700        .'      MOVS     r7,#0
        0x00001320:    2059        Y       MOVS     r0,#0x59
        0x00001322:    496f        oI      LDR      r1,[pc,#444] ; [0x14e0] = 0x50000100
        0x00001324:    6008        .`      STR      r0,[r1,#0]
        0x00001326:    2016        .       MOVS     r0,#0x16
        0x00001328:    6008        .`      STR      r0,[r1,#0]
        0x0000132a:    2088        .       MOVS     r0,#0x88
        0x0000132c:    6008        .`      STR      r0,[r1,#0]
        0x0000132e:    486d        mH      LDR      r0,[pc,#436] ; [0x14e4] = 0x50000200
        0x00001330:    6800        .h      LDR      r0,[r0,#0]
        0x00001332:    2102        .!      MOVS     r1,#2
        0x00001334:    4388        .C      BICS     r0,r0,r1
        0x00001336:    1c80        ..      ADDS     r0,r0,#2
        0x00001338:    496a        jI      LDR      r1,[pc,#424] ; [0x14e4] = 0x50000200
        0x0000133a:    6008        .`      STR      r0,[r1,#0]
        0x0000133c:    4608        .F      MOV      r0,r1
        0x0000133e:    6800        .h      LDR      r0,[r0,#0]
        0x00001340:    43a0        .C      BICS     r0,r0,r4
        0x00001342:    1c40        @.      ADDS     r0,r0,#1
        0x00001344:    6008        .`      STR      r0,[r1,#0]
        0x00001346:    4608        .F      MOV      r0,r1
        0x00001348:    6900        .i      LDR      r0,[r0,#0x10]
        0x0000134a:    08c0        ..      LSRS     r0,r0,#3
        0x0000134c:    00c0        ..      LSLS     r0,r0,#3
        0x0000134e:    6108        .a      STR      r0,[r1,#0x10]
        0x00001350:    2000        .       MOVS     r0,#0
        0x00001352:    4963        cI      LDR      r1,[pc,#396] ; [0x14e0] = 0x50000100
        0x00001354:    6008        .`      STR      r0,[r1,#0]
        0x00001356:    f7fffe4d    ..M.    BL       OpenKeyPad ; 0xff4
        0x0000135a:    f7ffff7f    ....    BL       close_seven_segment ; 0x125c
        0x0000135e:    f7fffdeb    ....    BL       LoadIndex ; 0xf38
        0x00001362:    e0ba        ..      B        0x14da ; main + 478
        0x00001364:    9804        ..      LDR      r0,[sp,#0x10]
        0x00001366:    2800        .(      CMP      r0,#0
        0x00001368:    d004        ..      BEQ      0x1374 ; main + 120
        0x0000136a:    2801        .(      CMP      r0,#1
        0x0000136c:    d022        ".      BEQ      0x13b4 ; main + 184
        0x0000136e:    2802        .(      CMP      r0,#2
        0x00001370:    d17d        }.      BNE      0x146e ; main + 370
        0x00001372:    e081        ..      B        0x1478 ; main + 380
        0x00001374:    f7fffe4c    ..L.    BL       Scankey ; 0x1010
        0x00001378:    b245        E.      SXTB     r5,r0
        0x0000137a:    2d01        .-      CMP      r5,#1
        0x0000137c:    d119        ..      BNE      0x13b2 ; main + 182
        0x0000137e:    2001        .       MOVS     r0,#1
        0x00001380:    9004        ..      STR      r0,[sp,#0x10]
        0x00001382:    f7fffc0d    ....    BL       InitData ; 0xba0
        0x00001386:    2700        .'      MOVS     r7,#0
        0x00001388:    4854        TH      LDR      r0,[pc,#336] ; [0x14dc] = 0x44bb8000
        0x0000138a:    9009        ..      STR      r0,[sp,#0x24]
        0x0000138c:    f7fffbfe    ....    BL       GetRand ; 0xb8c
        0x00001390:    4604        .F      MOV      r4,r0
        0x00001392:    b2e1        ..      UXTB     r1,r4
        0x00001394:    2001        .       MOVS     r0,#1
        0x00001396:    f7fffd35    ..5.    BL       LoadImg ; 0xe04
        0x0000139a:    2001        .       MOVS     r0,#1
        0x0000139c:    9008        ..      STR      r0,[sp,#0x20]
        0x0000139e:    9809        ..      LDR      r0,[sp,#0x24]
        0x000013a0:    f7fffa38    ..8.    BL       __aeabi_f2iz ; 0x814
        0x000013a4:    b200        ..      SXTH     r0,r0
        0x000013a6:    9007        ..      STR      r0,[sp,#0x1c]
        0x000013a8:    f7fffd12    ....    BL       LoadBuf ; 0xdd0
        0x000013ac:    484e        NH      LDR      r0,[pc,#312] ; [0x14e8] = 0x20000bfc
        0x000013ae:    f7ffff83    ....    BL       draw_LCD ; 0x12b8
        0x000013b2:    e091        ..      B        0x14d8 ; main + 476
        0x000013b4:    aa05        ..      ADD      r2,sp,#0x14
        0x000013b6:    a906        ..      ADD      r1,sp,#0x18
        0x000013b8:    4638        8F      MOV      r0,r7
        0x000013ba:    f000f8af    ....    BL       seg_display ; 0x151c
        0x000013be:    9807        ..      LDR      r0,[sp,#0x1c]
        0x000013c0:    2800        .(      CMP      r0,#0
        0x000013c2:    d004        ..      BEQ      0x13ce ; main + 210
        0x000013c4:    9807        ..      LDR      r0,[sp,#0x1c]
        0x000013c6:    1e40        @.      SUBS     r0,r0,#1
        0x000013c8:    b200        ..      SXTH     r0,r0
        0x000013ca:    9007        ..      STR      r0,[sp,#0x1c]
        0x000013cc:    e025        %.      B        0x141a ; main + 286
        0x000013ce:    9808        ..      LDR      r0,[sp,#0x20]
        0x000013d0:    2801        .(      CMP      r0,#1
        0x000013d2:    d107        ..      BNE      0x13e4 ; main + 232
        0x000013d4:    2002        .       MOVS     r0,#2
        0x000013d6:    9004        ..      STR      r0,[sp,#0x10]
        0x000013d8:    f7ffff52    ..R.    BL       clr_all_panel ; 0x1280
        0x000013dc:    b2f8        ..      UXTB     r0,r7
        0x000013de:    f7fffdc9    ....    BL       Loadres ; 0xf74
        0x000013e2:    e079        y.      B        0x14d8 ; main + 476
        0x000013e4:    b2e1        ..      UXTB     r1,r4
        0x000013e6:    2000        .       MOVS     r0,#0
        0x000013e8:    f7fffd0c    ....    BL       LoadImg ; 0xe04
        0x000013ec:    bf00        ..      NOP      
        0x000013ee:    f7fffbcd    ....    BL       GetRand ; 0xb8c
        0x000013f2:    4606        .F      MOV      r6,r0
        0x000013f4:    42a6        .B      CMP      r6,r4
        0x000013f6:    d0fa        ..      BEQ      0x13ee ; main + 242
        0x000013f8:    4634        4F      MOV      r4,r6
        0x000013fa:    b2e1        ..      UXTB     r1,r4
        0x000013fc:    2001        .       MOVS     r0,#1
        0x000013fe:    f7fffd01    ....    BL       LoadImg ; 0xe04
        0x00001402:    2001        .       MOVS     r0,#1
        0x00001404:    9008        ..      STR      r0,[sp,#0x20]
        0x00001406:    9809        ..      LDR      r0,[sp,#0x24]
        0x00001408:    f7fffa04    ....    BL       __aeabi_f2iz ; 0x814
        0x0000140c:    b200        ..      SXTH     r0,r0
        0x0000140e:    9007        ..      STR      r0,[sp,#0x1c]
        0x00001410:    f7fffcde    ....    BL       LoadBuf ; 0xdd0
        0x00001414:    4834        4H      LDR      r0,[pc,#208] ; [0x14e8] = 0x20000bfc
        0x00001416:    f7ffff4f    ..O.    BL       draw_LCD ; 0x12b8
        0x0000141a:    f7fffdf9    ....    BL       Scankey ; 0x1010
        0x0000141e:    b245        E.      SXTB     r5,r0
        0x00001420:    1ee8        ..      SUBS     r0,r5,#3
        0x00001422:    42a0        .B      CMP      r0,r4
        0x00001424:    d11d        ..      BNE      0x1462 ; main + 358
        0x00001426:    9808        ..      LDR      r0,[sp,#0x20]
        0x00001428:    2800        .(      CMP      r0,#0
        0x0000142a:    d01a        ..      BEQ      0x1462 ; main + 358
        0x0000142c:    b2e1        ..      UXTB     r1,r4
        0x0000142e:    2002        .       MOVS     r0,#2
        0x00001430:    f7fffce8    ....    BL       LoadImg ; 0xe04
        0x00001434:    2000        .       MOVS     r0,#0
        0x00001436:    9008        ..      STR      r0,[sp,#0x20]
        0x00001438:    1c78        x.      ADDS     r0,r7,#1
        0x0000143a:    b247        G.      SXTB     r7,r0
        0x0000143c:    9809        ..      LDR      r0,[sp,#0x24]
        0x0000143e:    f7fff9c1    ....    BL       __aeabi_f2d ; 0x7c4
        0x00001442:    4a2a        *J      LDR      r2,[pc,#168] ; [0x14ec] = 0x70a3d70a
        0x00001444:    4b2a        *K      LDR      r3,[pc,#168] ; [0x14f0] = 0x3fef0a3d
        0x00001446:    9101        ..      STR      r1,[sp,#4]
        0x00001448:    9000        ..      STR      r0,[sp,#0]
        0x0000144a:    f7fff875    ..u.    BL       __aeabi_dmul ; 0x538
        0x0000144e:    9103        ..      STR      r1,[sp,#0xc]
        0x00001450:    9002        ..      STR      r0,[sp,#8]
        0x00001452:    f7fff833    ..3.    BL       __aeabi_d2f ; 0x4bc
        0x00001456:    9009        ..      STR      r0,[sp,#0x24]
        0x00001458:    f7fffcba    ....    BL       LoadBuf ; 0xdd0
        0x0000145c:    4822        "H      LDR      r0,[pc,#136] ; [0x14e8] = 0x20000bfc
        0x0000145e:    f7ffff2b    ..+.    BL       draw_LCD ; 0x12b8
        0x00001462:    2d03        .-      CMP      r5,#3
        0x00001464:    d107        ..      BNE      0x1476 ; main + 378
        0x00001466:    2002        .       MOVS     r0,#2
        0x00001468:    9004        ..      STR      r0,[sp,#0x10]
        0x0000146a:    b2f8        ..      UXTB     r0,r7
        0x0000146c:    e000        ..      B        0x1470 ; main + 372
        0x0000146e:    e032        2.      B        0x14d6 ; main + 474
        0x00001470:    f7fffd80    ....    BL       Loadres ; 0xf74
        0x00001474:    e030        0.      B        0x14d8 ; main + 476
        0x00001476:    e02f        /.      B        0x14d8 ; main + 476
        0x00001478:    aa05        ..      ADD      r2,sp,#0x14
        0x0000147a:    a906        ..      ADD      r1,sp,#0x18
        0x0000147c:    4638        8F      MOV      r0,r7
        0x0000147e:    f000f84d    ..M.    BL       seg_display ; 0x151c
        0x00001482:    f7fffdc5    ....    BL       Scankey ; 0x1010
        0x00001486:    b245        E.      SXTB     r5,r0
        0x00001488:    2d01        .-      CMP      r5,#1
        0x0000148a:    d11a        ..      BNE      0x14c2 ; main + 454
        0x0000148c:    2001        .       MOVS     r0,#1
        0x0000148e:    9004        ..      STR      r0,[sp,#0x10]
        0x00001490:    f7fffb86    ....    BL       InitData ; 0xba0
        0x00001494:    2700        .'      MOVS     r7,#0
        0x00001496:    4811        .H      LDR      r0,[pc,#68] ; [0x14dc] = 0x44bb8000
        0x00001498:    9009        ..      STR      r0,[sp,#0x24]
        0x0000149a:    f7fffb77    ..w.    BL       GetRand ; 0xb8c
        0x0000149e:    4604        .F      MOV      r4,r0
        0x000014a0:    b2e1        ..      UXTB     r1,r4
        0x000014a2:    2001        .       MOVS     r0,#1
        0x000014a4:    f7fffcae    ....    BL       LoadImg ; 0xe04
        0x000014a8:    2001        .       MOVS     r0,#1
        0x000014aa:    9008        ..      STR      r0,[sp,#0x20]
        0x000014ac:    9809        ..      LDR      r0,[sp,#0x24]
        0x000014ae:    f7fff9b1    ....    BL       __aeabi_f2iz ; 0x814
        0x000014b2:    b200        ..      SXTH     r0,r0
        0x000014b4:    9007        ..      STR      r0,[sp,#0x1c]
        0x000014b6:    f7fffc8b    ....    BL       LoadBuf ; 0xdd0
        0x000014ba:    480b        .H      LDR      r0,[pc,#44] ; [0x14e8] = 0x20000bfc
        0x000014bc:    f7fffefc    ....    BL       draw_LCD ; 0x12b8
        0x000014c0:    e00a        ..      B        0x14d8 ; main + 476
        0x000014c2:    2d02        .-      CMP      r5,#2
        0x000014c4:    d106        ..      BNE      0x14d4 ; main + 472
        0x000014c6:    2000        .       MOVS     r0,#0
        0x000014c8:    9004        ..      STR      r0,[sp,#0x10]
        0x000014ca:    f7fffec7    ....    BL       close_seven_segment ; 0x125c
        0x000014ce:    f7fffd33    ..3.    BL       LoadIndex ; 0xf38
        0x000014d2:    e001        ..      B        0x14d8 ; main + 476
        0x000014d4:    bf00        ..      NOP      
        0x000014d6:    bf00        ..      NOP      
        0x000014d8:    bf00        ..      NOP      
        0x000014da:    e743        C.      B        0x1364 ; main + 104
    $d
        0x000014dc:    44bb8000    ...D    DCD    1153138688
        0x000014e0:    50000100    ...P    DCD    1342177536
        0x000014e4:    50000200    ...P    DCD    1342177792
        0x000014e8:    20000bfc    ...     DCD    536873980
        0x000014ec:    70a3d70a    ...p    DCD    1889785610
        0x000014f0:    3fef0a3d    =..?    DCD    1072630333
    $t
    i.print_lcd
    print_lcd
        0x000014f4:    b570        p.      PUSH     {r4-r6,lr}
        0x000014f6:    4606        .F      MOV      r6,r0
        0x000014f8:    460c        .F      MOV      r4,r1
        0x000014fa:    2500        .%      MOVS     r5,#0
        0x000014fc:    bf00        ..      NOP      
        0x000014fe:    7822        "x      LDRB     r2,[r4,#0]
        0x00001500:    1c64        d.      ADDS     r4,r4,#1
        0x00001502:    b2e9        ..      UXTB     r1,r5
        0x00001504:    4630        0F      MOV      r0,r6
        0x00001506:    f7fffe3f    ..?.    BL       Show_Word ; 0x1188
        0x0000150a:    1c6d        m.      ADDS     r5,r5,#1
        0x0000150c:    2d0f        .-      CMP      r5,#0xf
        0x0000150e:    dd00        ..      BLE      0x1512 ; print_lcd + 30
        0x00001510:    e002        ..      B        0x1518 ; print_lcd + 36
        0x00001512:    7820         x      LDRB     r0,[r4,#0]
        0x00001514:    2800        .(      CMP      r0,#0
        0x00001516:    d1f2        ..      BNE      0x14fe ; print_lcd + 10
        0x00001518:    bf00        ..      NOP      
        0x0000151a:    bd70        p.      POP      {r4-r6,pc}
    i.seg_display
    seg_display
        0x0000151c:    b5fe        ..      PUSH     {r1-r7,lr}
        0x0000151e:    4607        .F      MOV      r7,r0
        0x00001520:    460e        .F      MOV      r6,r1
        0x00001522:    4615        .F      MOV      r5,r2
        0x00001524:    9702        ..      STR      r7,[sp,#8]
        0x00001526:    2000        .       MOVS     r0,#0
        0x00001528:    9001        ..      STR      r0,[sp,#4]
        0x0000152a:    8830        0.      LDRH     r0,[r6,#0]
        0x0000152c:    2800        .(      CMP      r0,#0
        0x0000152e:    d004        ..      BEQ      0x153a ; seg_display + 30
        0x00001530:    8830        0.      LDRH     r0,[r6,#0]
        0x00001532:    1e40        @.      SUBS     r0,r0,#1
        0x00001534:    b200        ..      SXTH     r0,r0
        0x00001536:    8030        0.      STRH     r0,[r6,#0]
        0x00001538:    e066        f.      B        0x1608 ; seg_display + 236
        0x0000153a:    e009        ..      B        0x1550 ; seg_display + 52
        0x0000153c:    9801        ..      LDR      r0,[sp,#4]
        0x0000153e:    1c40        @.      ADDS     r0,r0,#1
        0x00001540:    b240        @.      SXTB     r0,r0
        0x00001542:    9001        ..      STR      r0,[sp,#4]
        0x00001544:    210a        .!      MOVS     r1,#0xa
        0x00001546:    9802        ..      LDR      r0,[sp,#8]
        0x00001548:    f7feff12    ....    BL       __aeabi_idiv ; 0x370
        0x0000154c:    b240        @.      SXTB     r0,r0
        0x0000154e:    9002        ..      STR      r0,[sp,#8]
        0x00001550:    9802        ..      LDR      r0,[sp,#8]
        0x00001552:    2800        .(      CMP      r0,#0
        0x00001554:    d1f2        ..      BNE      0x153c ; seg_display + 32
        0x00001556:    2001        .       MOVS     r0,#1
        0x00001558:    8030        0.      STRH     r0,[r6,#0]
        0x0000155a:    7828        (x      LDRB     r0,[r5,#0]
        0x0000155c:    1c40        @.      ADDS     r0,r0,#1
        0x0000155e:    b240        @.      SXTB     r0,r0
        0x00001560:    7028        (p      STRB     r0,[r5,#0]
        0x00001562:    2100        .!      MOVS     r1,#0
        0x00001564:    5669        iV      LDRSB    r1,[r5,r1]
        0x00001566:    9801        ..      LDR      r0,[sp,#4]
        0x00001568:    1e40        @.      SUBS     r0,r0,#1
        0x0000156a:    4281        .B      CMP      r1,r0
        0x0000156c:    dd01        ..      BLE      0x1572 ; seg_display + 86
        0x0000156e:    2000        .       MOVS     r0,#0
        0x00001570:    7028        (p      STRB     r0,[r5,#0]
        0x00001572:    9702        ..      STR      r7,[sp,#8]
        0x00001574:    2000        .       MOVS     r0,#0
        0x00001576:    5628        (V      LDRSB    r0,[r5,r0]
        0x00001578:    2800        .(      CMP      r0,#0
        0x0000157a:    d006        ..      BEQ      0x158a ; seg_display + 110
        0x0000157c:    2801        .(      CMP      r0,#1
        0x0000157e:    d010        ..      BEQ      0x15a2 ; seg_display + 134
        0x00001580:    2802        .(      CMP      r0,#2
        0x00001582:    d01e        ..      BEQ      0x15c2 ; seg_display + 166
        0x00001584:    2803        .(      CMP      r0,#3
        0x00001586:    d13d        =.      BNE      0x1604 ; seg_display + 232
        0x00001588:    e02b        +.      B        0x15e2 ; seg_display + 198
        0x0000158a:    210a        .!      MOVS     r1,#0xa
        0x0000158c:    9802        ..      LDR      r0,[sp,#8]
        0x0000158e:    f7fefeef    ....    BL       __aeabi_idiv ; 0x370
        0x00001592:    b24c        L.      SXTB     r4,r1
        0x00001594:    f7fffe62    ..b.    BL       close_seven_segment ; 0x125c
        0x00001598:    b2e1        ..      UXTB     r1,r4
        0x0000159a:    2000        .       MOVS     r0,#0
        0x0000159c:    f000f836    ..6.    BL       show_seven_segment ; 0x160c
        0x000015a0:    e031        1.      B        0x1606 ; seg_display + 234
        0x000015a2:    210a        .!      MOVS     r1,#0xa
        0x000015a4:    9802        ..      LDR      r0,[sp,#8]
        0x000015a6:    f7fefee3    ....    BL       __aeabi_idiv ; 0x370
        0x000015aa:    210a        .!      MOVS     r1,#0xa
        0x000015ac:    9000        ..      STR      r0,[sp,#0]
        0x000015ae:    f7fefedf    ....    BL       __aeabi_idiv ; 0x370
        0x000015b2:    b24c        L.      SXTB     r4,r1
        0x000015b4:    f7fffe52    ..R.    BL       close_seven_segment ; 0x125c
        0x000015b8:    b2e1        ..      UXTB     r1,r4
        0x000015ba:    2001        .       MOVS     r0,#1
        0x000015bc:    f000f826    ..&.    BL       show_seven_segment ; 0x160c
        0x000015c0:    e021        !.      B        0x1606 ; seg_display + 234
        0x000015c2:    2164        d!      MOVS     r1,#0x64
        0x000015c4:    9802        ..      LDR      r0,[sp,#8]
        0x000015c6:    f7fefed3    ....    BL       __aeabi_idiv ; 0x370
        0x000015ca:    210a        .!      MOVS     r1,#0xa
        0x000015cc:    9000        ..      STR      r0,[sp,#0]
        0x000015ce:    f7fefecf    ....    BL       __aeabi_idiv ; 0x370
        0x000015d2:    b24c        L.      SXTB     r4,r1
        0x000015d4:    f7fffe42    ..B.    BL       close_seven_segment ; 0x125c
        0x000015d8:    b2e1        ..      UXTB     r1,r4
        0x000015da:    2002        .       MOVS     r0,#2
        0x000015dc:    f000f816    ....    BL       show_seven_segment ; 0x160c
        0x000015e0:    e011        ..      B        0x1606 ; seg_display + 234
        0x000015e2:    217d        }!      MOVS     r1,#0x7d
        0x000015e4:    00c9        ..      LSLS     r1,r1,#3
        0x000015e6:    9802        ..      LDR      r0,[sp,#8]
        0x000015e8:    f7fefec2    ....    BL       __aeabi_idiv ; 0x370
        0x000015ec:    210a        .!      MOVS     r1,#0xa
        0x000015ee:    9000        ..      STR      r0,[sp,#0]
        0x000015f0:    f7fefebe    ....    BL       __aeabi_idiv ; 0x370
        0x000015f4:    b24c        L.      SXTB     r4,r1
        0x000015f6:    f7fffe31    ..1.    BL       close_seven_segment ; 0x125c
        0x000015fa:    b2e1        ..      UXTB     r1,r4
        0x000015fc:    2003        .       MOVS     r0,#3
        0x000015fe:    f000f805    ....    BL       show_seven_segment ; 0x160c
        0x00001602:    e000        ..      B        0x1606 ; seg_display + 234
        0x00001604:    bf00        ..      NOP      
        0x00001606:    bf00        ..      NOP      
        0x00001608:    bdfe        ..      POP      {r1-r7,pc}
        0x0000160a:    0000        ..      MOVS     r0,r0
    i.show_seven_segment
    show_seven_segment
        0x0000160c:    b5f8        ..      PUSH     {r3-r7,lr}
        0x0000160e:    4605        .F      MOV      r5,r0
        0x00001610:    460f        .F      MOV      r7,r1
        0x00001612:    480d        .H      LDR      r0,[pc,#52] ; [0x1648] = 0x200005f0
        0x00001614:    5dc6        .]      LDRB     r6,[r0,r7]
        0x00001616:    2400        .$      MOVS     r4,#0
        0x00001618:    e00f        ..      B        0x163a ; show_seven_segment + 46
        0x0000161a:    07f0        ..      LSLS     r0,r6,#31
        0x0000161c:    0fc0        ..      LSRS     r0,r0,#31
        0x0000161e:    2801        .(      CMP      r0,#1
        0x00001620:    d104        ..      BNE      0x162c ; show_seven_segment + 32
        0x00001622:    4621        !F      MOV      r1,r4
        0x00001624:    2004        .       MOVS     r0,#4
        0x00001626:    f7fffa39    ..9.    BL       DrvGPIO_SetBit ; 0xa9c
        0x0000162a:    e003        ..      B        0x1634 ; show_seven_segment + 40
        0x0000162c:    4621        !F      MOV      r1,r4
        0x0000162e:    2004        .       MOVS     r0,#4
        0x00001630:    f7fff9ce    ....    BL       DrvGPIO_ClrBit ; 0x9d0
        0x00001634:    1076        v.      ASRS     r6,r6,#1
        0x00001636:    1c60        `.      ADDS     r0,r4,#1
        0x00001638:    b2c4        ..      UXTB     r4,r0
        0x0000163a:    2c08        .,      CMP      r4,#8
        0x0000163c:    dbed        ..      BLT      0x161a ; show_seven_segment + 14
        0x0000163e:    1d29        ).      ADDS     r1,r5,#4
        0x00001640:    2002        .       MOVS     r0,#2
        0x00001642:    f7fffa2b    ..+.    BL       DrvGPIO_SetBit ; 0xa9c
        0x00001646:    bdf8        ..      POP      {r3-r7,pc}
    $d
        0x00001648:    200005f0    ...     DCD    536872432
    $d.realdata
    .constdata
    x$fpl$usenofp
    __I$use$fp
        0x0000164c:    003e3d3b    ;=>.    DCD    4078907
    .constdata
        0x00001650:    72756f59    Your    DCD    1920298841
        0x00001654:    6f635320     Sco    DCD    1868780320
        0x00001658:    003a6572    re:.    DCD    3827058
        0x0000165c:    00000000    ....    DCD    0
    Region$$Table$$Base
        0x00001660:    00001680    ....    DCD    5760
        0x00001664:    20000000    ...     DCD    536870912
        0x00001668:    000007fc    ....    DCD    2044
        0x0000166c:    00000104    ....    DCD    260
        0x00001670:    00001e7c    |...    DCD    7804
        0x00001674:    200007fc    ...     DCD    536872956
        0x00001678:    00000d44    D...    DCD    3396
        0x0000167c:    00000120     ...    DCD    288
    Region$$Table$$Limit

** Section #2 'ER_RW' (SHT_PROGBITS) [SHF_ALLOC + SHF_WRITE]
    Size   : 2044 bytes (alignment 4)
    Address: 0x20000000


** Section #3 'ER_ZI' (SHT_NOBITS) [SHF_ALLOC + SHF_WRITE]
    Size   : 3396 bytes (alignment 8)
    Address: 0x200007fc


** Section #4 '.debug_abbrev' (SHT_PROGBITS)
    Size   : 1476 bytes


** Section #5 '.debug_frame' (SHT_PROGBITS)
    Size   : 1680 bytes


** Section #6 '.debug_info' (SHT_PROGBITS)
    Size   : 108324 bytes


** Section #7 '.debug_line' (SHT_PROGBITS)
    Size   : 5516 bytes


** Section #8 '.debug_loc' (SHT_PROGBITS)
    Size   : 2044 bytes


** Section #9 '.debug_macinfo' (SHT_PROGBITS)
    Size   : 141388 bytes


** Section #10 '.debug_pubnames' (SHT_PROGBITS)
    Size   : 1195 bytes


** Section #11 '.symtab' (SHT_SYMTAB)
    Size   : 6976 bytes (alignment 4)
    String table #12 '.strtab'
    Last local symbol no. 275


** Section #12 '.strtab' (SHT_STRTAB)
    Size   : 5524 bytes


** Section #13 '.note' (SHT_NOTE)
    Size   : 28 bytes (alignment 4)


** Section #14 '.comment' (SHT_PROGBITS)
    Size   : 4672 bytes


** Section #15 '.shstrtab' (SHT_STRTAB)
    Size   : 156 bytes


